(dp0
S'wrfcontrib'
p1
(lp2
S'ncl_key_wrfcontrib'
p3
aS'Ncl wrf_contributed functions.'
p4
aS'http://www.ncl.ucar.edu//Document/Functions/WRF_contributed/'
p5
a(lp6
Vwrf_mapres_c
p7
aVwrf_times_c
p8
aasS'shea'
p9
(lp10
S'ncl_key_shea'
p11
aS'Ncl shea_util functions.'
p12
aS'http://www.ncl.ucar.edu//Document/Functions/Shea_util/'
p13
a(lp14
Vadd90LatX
p15
aVadd90LatY
p16
aVboxplot
p17
aVColorNegDashZeroPosContour
p18
aVColorShadeLeGeContour
p19
aVdrawNDCGrid
p20
aVinfoTimeStamp
p21
aVlandsea_mask
p22
aVmsgValOutline
p23
aVpie_chart
p24
aVplt_pdfxy
p25
aVsetColorContourClear
p26
aVShadeCOI
p27
aVShadeGeLeContour
p28
aVShadeGtContour
p29
aVShadeLtContour
p30
aVShadeLtGtContour
p31
aVspecx_ci
p32
aasS'diag'
p33
(lp34
S'ncl_key_diag'
p35
aS'Ncl diagnostics functions.'
p36
aS'http://www.ncl.ucar.edu//Document/Functions/Diagnostics/'
p37
a(lp38
Vband_pass_area_time
p39
aVband_pass_area_time_plot
p40
aVband_pass_hovmueller
p41
aVband_pass_hovmueller_plot
p42
aVband_pass_latlon_time
p43
aVband_pass_latlon_time_plot
p44
aVdecomposeSymAsym
p45
aVmjo_cross
p46
aVmjo_cross_plot
p47
aVmjo_phase_background
p48
aVmjo_space_time_cross
p49
aVmjo_spectra
p50
aVmjo_spectra_season
p51
aVmjo_wavenum_freq_season
p52
aVmjo_wavenum_freq_season_plot
p53
aVmjo_xcor_lag_ovly
p54
aVmjo_xcor_lag_ovly_panel
p55
aVmjo_xcor_lag_season
p56
aVresolveWavesHayashi
p57
aVwkSpaceTime
p58
aVwkSpaceTime_cam
p59
aasS'operators'
p60
(lp61
S'ncl_key_operators'
p62
aS'Operators in NCL.'
p63
aS'No specific url.'
p64
a(lp65
S'(/'
p66
aS'/)'
p67
aS'\\\\'
p68
aS'.eq.'
p69
aS'.ne.'
p70
aS'.lt.'
p71
aS'.le.'
p72
aS'.gt.'
p73
aS'.ge.'
p74
aS'.and.'
p75
aS'.or.'
p76
aS'.not.'
p77
aS'.xor.'
p78
aasS'windrose'
p79
(lp80
S'ncl_key_windrose'
p81
aS'Ncl wind_rose functions.'
p82
aS'http://www.ncl.ucar.edu//Document/Functions/Wind_rose/'
p83
a(lp84
VWindRoseBasic
p85
aVWindRoseColor
p86
aVWindRoseThickLine
p87
aasS'pop'
p88
(lp89
S'ncl_key_pop'
p90
aS'Ncl pop_remap functions.'
p91
aS'http://www.ncl.ucar.edu//Document/Functions/Pop_remap/'
p92
a(lp93
VPopLatLon
p94
aVPopLatLonV
p95
aasS'wrfarw'
p96
(lp97
S'ncl_key_wrfarw'
p98
aS'Ncl wrf_arw functions.'
p99
aS'http://www.ncl.ucar.edu//Document/Functions/WRF_arw/'
p100
a(lp101
Vwrf_contour
p102
aVwrf_map
p103
aVwrf_map_overlay
p104
aVwrf_map_overlays
p105
aVwrf_map_resources
p106
aVwrf_map_zoom
p107
aVwrf_overlay
p108
aVwrf_overlays
p109
aVwrf_user_getvar
p110
aVwrf_user_ij_to_ll
p111
aVwrf_user_intrp2d
p112
aVwrf_user_intrp3d
p113
aVwrf_user_latlon_to_ij
p114
aVwrf_user_list_times
p115
aVwrf_user_ll_to_ij
p116
aVwrf_user_unstagger
p117
aVwrf_vector
p118
aasS'contrib'
p119
(lp120
S'ncl_key_contrib'
p121
aS'Ncl contributed functions.'
p122
aS'http://www.ncl.ucar.edu//Document/Functions/Contributed/'
p123
a(lp124
Vaddfiles_GetVar
p125
aVarea_conserve_remap_Wrap
p126
aVarea_hi2lores_Wrap
p127
aVarray_append_record
p128
aVassignFillValue
p129
aVbyte2flt
p130
aVbyte2flt_hdf
p131
aVcalcDayAnomTLL
p132
aVcalcMonAnomLLLT
p133
aVcalcMonAnomLLT
p134
aVcalcMonAnomTLL
p135
aVcalcMonAnomTLLL
p136
aVcd_convert
p137
aVchangeCase
p138
aVchangeCaseChar
p139
aVclmDayTLL
p140
aVclmDayTLLL
p141
aVclmMon2clmDay
p142
aVclmMonLLLT
p143
aVclmMonLLT
p144
aVclmMonTLL
p145
aVclmMonTLLL
p146
aVclosest_val
p147
aVcopy_VarAtts
p148
aVcopy_VarCoords
p149
aVcopy_VarCoords_1
p150
aVcopy_VarCoords_2
p151
aVcopy_VarMeta
p152
aVcopyatt
p153
aVcrossp3
p154
aVcshstringtolist
p155
aVcssgrid_Wrap
p156
aVdble2flt
p157
aVdecimalPlaces
p158
aVdelete_VarAtts
p159
aVdim_avg_n_Wrap
p160
aVdim_avg_wgt_n_Wrap
p161
aVdim_avg_wgt_Wrap
p162
aVdim_avg_Wrap
p163
aVdim_cumsum_n_Wrap
p164
aVdim_cumsum_Wrap
p165
aVdim_max_n_Wrap
p166
aVdim_min_n_Wrap
p167
aVdim_rmsd_n_Wrap
p168
aVdim_rmsd_Wrap
p169
aVdim_rmvmean_n_Wrap
p170
aVdim_rmvmean_Wrap
p171
aVdim_rmvmed_n_Wrap
p172
aVdim_rmvmed_Wrap
p173
aVdim_standardize_n_Wrap
p174
aVdim_standardize_Wrap
p175
aVdim_stddev_n_Wrap
p176
aVdim_stddev_Wrap
p177
aVdim_sum_n_Wrap
p178
aVdim_sum_wgt_n_Wrap
p179
aVdim_sum_wgt_Wrap
p180
aVdim_sum_Wrap
p181
aVdim_variance_n_Wrap
p182
aVdim_variance_Wrap
p183
aVdpres_plevel_Wrap
p184
aVdtrend_leftdim
p185
aVdv2uvF_Wrap
p186
aVdv2uvG_Wrap
p187
aVeofcor_Wrap
p188
aVeofcov_Wrap
p189
aVeofunc_ts_Wrap
p190
aVeofunc_varimax_reorder
p191
aVeofunc_varimax_Wrap
p192
aVeofunc_Wrap
p193
aVepsZero
p194
aVf2fosh_Wrap
p195
aVf2foshv_Wrap
p196
aVf2fsh_Wrap
p197
aVf2fshv_Wrap
p198
aVf2gsh_Wrap
p199
aVf2gshv_Wrap
p200
aVfbindirSwap
p201
aVfbinseqSwap1
p202
aVfbinseqSwap2
p203
aVflt2dble
p204
aVflt2string
p205
aVfo2fsh_Wrap
p206
aVfo2fshv_Wrap
p207
aVg2fsh_Wrap
p208
aVg2fshv_Wrap
p209
aVg2gsh_Wrap
p210
aVg2gshv_Wrap
p211
aVgenerate_unique_indices
p212
aVgenNormalDist
p213
aVget1Dindex
p214
aVget1Dindex_Collapse
p215
aVget1Dindex_Exclude
p216
aVget_file_suffix
p217
aVGetFillColor
p218
aVGetFillColorIndex
p219
aVgetFillValue
p220
aVgetind_latlon2d
p221
aVgetVarDimNames
p222
aVgetVarFillValue
p223
aVgrib_stime2itime
p224
aVhyi2hyo_Wrap
p225
aVilapsF_Wrap
p226
aVilapsG_Wrap
p227
aVind_nearest_coord
p228
aVindStrSubset
p229
aVint2dble
p230
aVint2flt
p231
aVint2p_n_Wrap
p232
aVint2p_Wrap
p233
aVisMonotonic
p234
aVisStrSubset
p235
aVlatGau
p236
aVlatGauWgt
p237
aVlatGlobeF
p238
aVlatGlobeFo
p239
aVlatRegWgt
p240
aVlinint1_n_Wrap
p241
aVlinint1_Wrap
p242
aVlinint2_points_Wrap
p243
aVlinint2_Wrap
p244
aVlocal_max_1d
p245
aVlocal_min_1d
p246
aVlonFlip
p247
aVlonGlobeF
p248
aVlonGlobeFo
p249
aVlonPivot
p250
aVmerge_levels_sfc
p251
aVmod
p252
aVmonth_to_annual
p253
aVmonth_to_annual_weighted
p254
aVmonth_to_season
p255
aVmonth_to_season12
p256
aVmonth_to_seasonN
p257
aVmonthly_total_to_daily_mean
p258
aVnameDim
p259
aVnatgrid_Wrap
p260
aVNewCosWeight
p261
aVniceLatLon2D
p262
aVNormCosWgtGlobe
p263
aVnumAsciiCol
p264
aVnumAsciiRow
p265
aVnumeric2int
p266
aVobj_anal_ic_deprecated
p267
aVobj_anal_ic_Wrap
p268
aVomega_ccm_driver
p269
aVoneDtostring
p270
aVpack_values
p271
aVpattern_cor
p272
aVpdfx
p273
aVpdfxy
p274
aVpres2hybrid_Wrap
p275
aVprintMinMax
p276
aVquadroots
p277
aVrcm2points_Wrap
p278
aVrcm2rgrid_Wrap
p279
aVreadAsciiHead
p280
aVreadAsciiTable
p281
aVregion_ind
p282
aVrelhum_ttd
p283
aVreplaceSingleChar
p284
aVRGBtoCmap
p285
aVrgrid2rcm_Wrap
p286
aVrho_mwjf
p287
aVrm_single_dims
p288
aVrmAnnCycle1D
p289
aVrmInsufData
p290
aVrmMonAnnCycLLLT
p291
aVrmMonAnnCycLLT
p292
aVrmMonAnnCycTLL
p293
aVrunave_n_Wrap
p294
aVrunave_Wrap
p295
aVshort2flt
p296
aVshort2flt_hdf
p297
aVshsgc_R42_Wrap
p298
aVsmth9_Wrap
p299
aVsmthClmDayTLL
p300
aVSqrtCosWeight
p301
aVstat_dispersion
p302
aVstdMonLLLT
p303
aVstdMonLLT
p304
aVstdMonTLL
p305
aVstdMonTLLL
p306
aVsymMinMaxPlt
p307
aVtable_attach_columns
p308
aVtable_attach_rows
p309
aVtime_to_newtime
p310
aVtranspose
p311
aVtriple2grid_Wrap
p312
aVut_convert
p313
aVuv2dvF_Wrap
p314
aVuv2dvG_Wrap
p315
aVuv2vrF_Wrap
p316
aVuv2vrG_Wrap
p317
aVvr2uvF_Wrap
p318
aVvr2uvG_Wrap
p319
aVwallClockElapseTime
p320
aVwave_number_spc
p321
aVwgt_areaave_Wrap
p322
aVwgt_runave_leftdim
p323
aVwgt_runave_n_Wrap
p324
aVwgt_runave_Wrap
p325
aVwind_component
p326
aVwind_direction
p327
aVyyyyddd_to_yyyymmdd
p328
aVyyyymm_time
p329
aVyyyymm_to_yyyyfrac
p330
aVyyyymmdd_time
p331
aVyyyymmdd_to_yyyyddd
p332
aVyyyymmdd_to_yyyyfrac
p333
aVyyyymmddhh_time
p334
aVyyyymmddhh_to_yyyyfrac
p335
aVzonal_mpsi_Wrap
p336
aVzonalAve
p337
aasS'builtin'
p338
(lp339
S'ncl_key_builtin'
p340
aS'Ncl built-in functions.'
p341
aS'http://www.ncl.ucar.edu//Document/Functions/Built-in/'
p342
a(lp343
Vabs
p344
aVacos
p345
aVaddfile
p346
aVaddfiles
p347
aVall
p348
aVangmom_atm
p349
aVany
p350
aVarea_conserve_remap
p351
aVarea_hi2lores
p352
aVasciiread
p353
aVasciiwrite
p354
aVasin
p355
aVatan
p356
aVatan2
p357
aVattsetvalues
p358
aVavg
p359
aVbetainc
p360
aVbin_avg
p361
aVbin_sum
p362
aVcancor
p363
aVcbinread
p364
aVcbinwrite
p365
aVcd_calendar
p366
aVcd_inv_calendar
p367
aVcdfbin_p
p368
aVcdfbin_pr
p369
aVcdfbin_s
p370
aVcdfbin_xn
p371
aVcdfchi_p
p372
aVcdfchi_x
p373
aVcdfgam_p
p374
aVcdfgam_x
p375
aVcdfnor_p
p376
aVcdfnor_x
p377
aVcdft_p
p378
aVcdft_t
p379
aVceil
p380
aVcenter_finite_diff
p381
aVcenter_finite_diff_n
p382
aVcfftb
p383
aVcfftf
p384
aVcfftf_frq_reorder
p385
aVcharactertodouble
p386
aVcharactertofloat
p387
aVcharactertointeger
p388
aVcharactertolong
p389
aVcharactertoshort
p390
aVcharactertostring
p391
aVchartodouble
p392
aVchartofloat
p393
aVchartoint
p394
aVchartointeger
p395
aVchartolong
p396
aVchartoshort
p397
aVchartostring
p398
aVchiinv
p399
aVclear
p400
aVconform
p401
aVconform_dims
p402
aVcos
p403
aVcosh
p404
aVcovcorm
p405
aVcovcorm_xy
p406
aVcraybinnumrec
p407
aVcraybinrecread
p408
aVcsa1
p409
aVcsa1d
p410
aVcsa1s
p411
aVcsa1x
p412
aVcsa1xd
p413
aVcsa1xs
p414
aVcsa2
p415
aVcsa2d
p416
aVcsa2l
p417
aVcsa2ld
p418
aVcsa2ls
p419
aVcsa2lx
p420
aVcsa2lxd
p421
aVcsa2lxs
p422
aVcsa2s
p423
aVcsa2x
p424
aVcsa2xd
p425
aVcsa2xs
p426
aVcsa3
p427
aVcsa3d
p428
aVcsa3l
p429
aVcsa3ld
p430
aVcsa3ls
p431
aVcsa3lx
p432
aVcsa3lxd
p433
aVcsa3lxs
p434
aVcsa3s
p435
aVcsa3x
p436
aVcsa3xd
p437
aVcsa3xs
p438
aVcsc2s
p439
aVcsgetp
p440
aVcss2c
p441
aVcssetp
p442
aVcssgrid
p443
aVcsstri
p444
aVcsvoro
p445
aVcumsum
p446
aVcz2ccm
p447
aVdatatondc
p448
aVday_of_week
p449
aVday_of_year
p450
aVdays_in_month
p451
aVdefault_fillvalue
p452
aVdelete
p453
aVdepth_to_pres
p454
aVdestroy
p455
aVdewtemp_trh
p456
aVdgeevx_lapack
p457
aVdim_avg
p458
aVdim_avg_n
p459
aVdim_avg_wgt
p460
aVdim_avg_wgt_n
p461
aVdim_cumsum
p462
aVdim_cumsum_n
p463
aVdim_gamfit_n
p464
aVdim_gbits
p465
aVdim_max
p466
aVdim_max_n
p467
aVdim_median
p468
aVdim_median_n
p469
aVdim_min
p470
aVdim_min_n
p471
aVdim_num
p472
aVdim_num_n
p473
aVdim_numrun_n
p474
aVdim_pqsort
p475
aVdim_pqsort_n
p476
aVdim_product
p477
aVdim_product_n
p478
aVdim_rmsd
p479
aVdim_rmsd_n
p480
aVdim_rmvmean
p481
aVdim_rmvmean_n
p482
aVdim_rmvmed
p483
aVdim_rmvmed_n
p484
aVdim_spi_n
p485
aVdim_standardize
p486
aVdim_standardize_n
p487
aVdim_stat4
p488
aVdim_stat4_n
p489
aVdim_stddev
p490
aVdim_stddev_n
p491
aVdim_sum
p492
aVdim_sum_n
p493
aVdim_sum_wgt
p494
aVdim_sum_wgt_n
p495
aVdim_variance
p496
aVdim_variance_n
p497
aVdimsizes
p498
aVdoubletobyte
p499
aVdoubletochar
p500
aVdoubletocharacter
p501
aVdoubletofloat
p502
aVdoubletoint
p503
aVdoubletointeger
p504
aVdoubletolong
p505
aVdoubletoshort
p506
aVdpres_hybrid_ccm
p507
aVdpres_plevel
p508
aVdraw
p509
aVdsgetp
p510
aVdsgrid2
p511
aVdsgrid2d
p512
aVdsgrid2s
p513
aVdsgrid3
p514
aVdsgrid3d
p515
aVdsgrid3s
p516
aVdspnt2
p517
aVdspnt2d
p518
aVdspnt2s
p519
aVdspnt3
p520
aVdspnt3d
p521
aVdspnt3s
p522
aVdssetp
p523
aVdtrend
p524
aVdtrend_msg
p525
aVdtrend_msg_n
p526
aVdtrend_n
p527
aVdtrend_quadratic
p528
aVdtrend_quadratic_msg_n
p529
aVdv2uvF
p530
aVdv2uvf
p531
aVdv2uvG
p532
aVdv2uvg
p533
aVdz_height
p534
aVecho_off
p535
aVecho_on
p536
aVeof2data
p537
aVeof_varimax
p538
aVeofcor
p539
aVeofcor_pcmsg
p540
aVeofcor_ts
p541
aVeofcov
p542
aVeofcov_pcmsg
p543
aVeofcov_ts
p544
aVeofunc
p545
aVeofunc_ts
p546
aVeofunc_varimax
p547
aVequiv_sample_size
p548
aVerf
p549
aVerfc
p550
aVesacr
p551
aVesacv
p552
aVesccr
p553
aVesccv
p554
aVescorc
p555
aVescovc
p556
aVexit
p557
aVexp
p558
aVexp_tapersh
p559
aVexp_tapersh_wgts
p560
aVexp_tapershC
p561
aVezfftb
p562
aVezfftf
p563
aVf2fosh
p564
aVf2foshv
p565
aVf2fsh
p566
aVf2fshv
p567
aVf2gsh
p568
aVf2gshv
p569
aVfabs
p570
aVfbindirread
p571
aVfbindirwrite
p572
aVfbinnumrec
p573
aVfbinread
p574
aVfbinrecread
p575
aVfbinrecwrite
p576
aVfbinwrite
p577
aVfft2db
p578
aVfft2df
p579
aVfileattdef
p580
aVfilechunkdimdef
p581
aVfiledimdef
p582
aVfilegrpdef
p583
aVfilevarattdef
p584
aVfilevarchunkdef
p585
aVfilevarcompressleveldef
p586
aVfilevardef
p587
aVfilevardimsizes
p588
aVfilwgts_lancos
p589
aVfilwgts_lanczos
p590
aVfilwgts_normal
p591
aVfloattobyte
p592
aVfloattochar
p593
aVfloattocharacter
p594
aVfloattoint
p595
aVfloattointeger
p596
aVfloattolong
p597
aVfloattoshort
p598
aVfloor
p599
aVfluxEddy
p600
aVfo2fsh
p601
aVfo2fshv
p602
aVfourier_info
p603
aVframe
p604
aVfspan
p605
aVftcurv
p606
aVftcurvd
p607
aVftcurvi
p608
aVftcurvp
p609
aVftcurvpi
p610
aVftcurvps
p611
aVftcurvs
p612
aVftest
p613
aVftgetp
p614
aVftkurv
p615
aVftkurvd
p616
aVftkurvp
p617
aVftkurvpd
p618
aVftsetp
p619
aVftsurf
p620
aVg2fsh
p621
aVg2fshv
p622
aVg2gsh
p623
aVg2gshv
p624
aVgamma
p625
aVgammainc
p626
aVgaus
p627
aVgaus_lobat
p628
aVgaus_lobat_wgt
p629
aVgc_aangle
p630
aVgc_clkwise
p631
aVgc_dangle
p632
aVgc_inout
p633
aVgc_latlon
p634
aVgc_onarc
p635
aVgc_pnt2gc
p636
aVgc_qarea
p637
aVgc_tarea
p638
aVgenerate_2d_array
p639
aVget_cpu_time
p640
aVget_ncl_version
p641
aVget_script_name
p642
aVget_script_prefix_name
p643
aVget_sphere_radius
p644
aVgetbitsone
p645
aVgetenv
p646
aVgetfiledimsizes
p647
aVgetfilegrpnames
p648
aVgetfilevaratts
p649
aVgetfilevardims
p650
aVgetfilevardimsizes
p651
aVgetfilevarnames
p652
aVgetfilevartypes
p653
aVgetvaratts
p654
aVgetvardims
p655
aVgradsf
p656
aVgradsg
p657
aVgreg2jul
p658
aVgrid2triple
p659
aVhlsrgb
p660
aVhsvrgb
p661
aVhydro
p662
aVhyi2hyo
p663
aVidsfft
p664
aVigradsf
p665
aVigradsF
p666
aVigradsg
p667
aVigradsG
p668
aVilapsf
p669
aVilapsF
p670
aVilapsg
p671
aVilapsG
p672
aVilapvf
p673
aVilapvg
p674
aVind
p675
aVind_resolve
p676
aVint2p
p677
aVint2p_n
p678
aVintegertobyte
p679
aVintegertochar
p680
aVintegertocharacter
p681
aVintegertoshort
p682
aVinttobyte
p683
aVinttochar
p684
aVinttoshort
p685
aVinverse_matrix
p686
aVisatt
p687
aVisbigendian
p688
aVisbyte
p689
aVischar
p690
aViscoord
p691
aVisdefined
p692
aVisdim
p693
aVisdimnamed
p694
aVisdouble
p695
aVisenumeric
p696
aVisfile
p697
aVisfilepresent
p698
aVisfilevar
p699
aVisfilevaratt
p700
aVisfilevarcoord
p701
aVisfilevardim
p702
aVisfloat
p703
aVisfunc
p704
aVisgraphic
p705
aVisint
p706
aVisint64
p707
aVisinteger
p708
aVisleapyear
p709
aVislogical
p710
aVislong
p711
aVismissing
p712
aVisnan_ieee
p713
aVisnumeric
p714
aVispan
p715
aVisproc
p716
aVisshort
p717
aVissnumeric
p718
aVisstring
p719
aVisubyte
p720
aVisuint
p721
aVisuint64
p722
aVisulong
p723
aVisunlimited
p724
aVisunsigned
p725
aVisushort
p726
aVisvar
p727
aVjul2greg
p728
aVkron_product
p729
aVlapsF
p730
aVlapsf
p731
aVlapsG
p732
aVlapsg
p733
aVlapvf
p734
aVlapvg
p735
aVlatlon2utm
p736
aVlclvl
p737
aVlderuvf
p738
aVlderuvg
p739
aVlinint1
p740
aVlinint1_n
p741
aVlinint2
p742
aVlinint2_points
p743
aVlinmsg
p744
aVlinmsg_n
p745
aVlinrood_latwgt
p746
aVlinrood_wgt
p747
aVlist_files
p748
aVlist_filevars
p749
aVlist_hlus
p750
aVlist_procfuncs
p751
aVlist_vars
p752
aVListCount
p753
aVListGetType
p754
aVListIndex
p755
aVListPop
p756
aVListPush
p757
aVListSetType
p758
aVloadscript
p759
aVlocal_max
p760
aVlocal_min
p761
aVlog
p762
aVlog10
p763
aVlongtobyte
p764
aVlongtochar
p765
aVlongtocharacter
p766
aVlongtoint
p767
aVlongtointeger
p768
aVlongtoshort
p769
aVlspoly
p770
aVmask
p771
aVmax
p772
aVmaxind
p773
aVmin
p774
aVminind
p775
aVmixed_layer_depth
p776
aVmixhum_ptd
p777
aVmixhum_ptrh
p778
aVmjo_cross_coh2pha
p779
aVmjo_cross_segment
p780
aVmoc_globe_atl
p781
aVmonthday
p782
aVnatgrid
p783
aVnatgridd
p784
aVnatgrids
p785
aVncargpath
p786
aVncargversion
p787
aVndctodata
p788
aVndtooned
p789
aVnew
p790
aVNewList
p791
aVngezlogo
p792
aVnggcog
p793
aVnggetp
p794
aVnglogo
p795
aVngsetp
p796
aVNhlAddAnnotation
p797
aVNhlAddData
p798
aVNhlAddOverlay
p799
aVNhlAddPrimitive
p800
aVNhlAppGetDefaultParentId
p801
aVNhlChangeWorkstation
p802
aVNhlClassName
p803
aVNhlClearWorkstation
p804
aVNhlDataPolygon
p805
aVNhlDataPolyline
p806
aVNhlDataPolymarker
p807
aVNhlDataToNDC
p808
aVNhlDestroy
p809
aVNhlDraw
p810
aVNhlFrame
p811
aVNhlFreeColor
p812
aVNhlGetBB
p813
aVNhlGetClassResources
p814
aVNhlGetErrorObjectId
p815
aVNhlGetNamedColorIndex
p816
aVNhlGetParentId
p817
aVNhlGetParentWorkstation
p818
aVNhlGetWorkspaceObjectId
p819
aVNhlIsAllocatedColor
p820
aVNhlIsApp
p821
aVNhlIsDataComm
p822
aVNhlIsDataItem
p823
aVNhlIsDataSpec
p824
aVNhlIsTransform
p825
aVNhlIsView
p826
aVNhlIsWorkstation
p827
aVNhlName
p828
aVNhlNDCPolygon
p829
aVNhlNDCPolyline
p830
aVNhlNDCPolymarker
p831
aVNhlNDCToData
p832
aVNhlNewColor
p833
aVNhlNewDashPattern
p834
aVNhlNewMarker
p835
aVNhlPalGetDefined
p836
aVNhlRemoveAnnotation
p837
aVNhlRemoveData
p838
aVNhlRemoveOverlay
p839
aVNhlRemovePrimitive
p840
aVNhlSetColor
p841
aVNhlSetDashPattern
p842
aVNhlSetMarker
p843
aVNhlUpdateData
p844
aVNhlUpdateWorkstation
p845
aVnice_mnmxintvl
p846
aVnngetaspectd
p847
aVnngetaspects
p848
aVnngetp
p849
aVnngetsloped
p850
aVnngetslopes
p851
aVnngetwts
p852
aVnngetwtsd
p853
aVnnpnt
p854
aVnnpntd
p855
aVnnpntend
p856
aVnnpntendd
p857
aVnnpntinit
p858
aVnnpntinitd
p859
aVnnpntinits
p860
aVnnpnts
p861
aVnnsetp
p862
aVnum
p863
aVobj_anal_ic
p864
aVomega_ccm
p865
aVonedtond
p866
aVoverlay
p867
aVpaleo_outline
p868
aVpdfxy_bin
p869
aVpoisson_grid_fill
p870
aVpop_remap
p871
aVpotmp_insitu_ocn
p872
aVprcwater_dp
p873
aVpres2hybrid
p874
aVpres_hybrid_ccm
p875
aVpres_sigma
p876
aVprint
p877
aVprint_table
p878
aVprintFileVarSummary
p879
aVprintVarSummary
p880
aVproduct
p881
aVpslec
p882
aVpslhor
p883
aVpslhyp
p884
aVqsort
p885
aVrand
p886
aVrandom_chi
p887
aVrandom_gamma
p888
aVrandom_normal
p889
aVrandom_setallseed
p890
aVrandom_uniform
p891
aVrcm2points
p892
aVrcm2rgrid
p893
aVrdsstoi
p894
aVreg_multlin
p895
aVregcoef
p896
aVregCoef
p897
aVregline
p898
aVrelhum
p899
aVreplace_ieeenan
p900
aVreshape
p901
aVreshape_ind
p902
aVrgbhls
p903
aVrgbhsv
p904
aVrgbyiq
p905
aVrgrid2rcm
p906
aVrhomb_trunc
p907
aVrhomb_trunC
p908
aVrip_cape_2d
p909
aVrip_cape_3d
p910
aVround
p911
aVrtest
p912
aVrunave
p913
aVrunave_n
p914
aVset_default_fillvalue
p915
aVset_sphere_radius
p916
aVsetfileoption
p917
aVsfvp2uvf
p918
aVsfvp2uvg
p919
aVshaeC
p920
aVshaec
p921
aVshagC
p922
aVshagc
p923
aVshgetnp
p924
aVshgetp
p925
aVshgrid
p926
aVshorttobyte
p927
aVshorttochar
p928
aVshorttocharacter
p929
aVshow_ascii
p930
aVshsec
p931
aVshseC
p932
aVshsetp
p933
aVshsgc
p934
aVshsgC
p935
aVshsgc_R42
p936
aVsigma2hybrid
p937
aVsimpeq
p938
aVsimpne
p939
aVsin
p940
aVsindex_yrmo
p941
aVsinh
p942
aVsizeof
p943
aVsleep
p944
aVsmth9
p945
aVsnindex_yrmo
p946
aVsolve_linsys
p947
aVsparse_matrix_mult
p948
aVspcorr
p949
aVspcorr_n
p950
aVspecx_anal
p951
aVspecxy_anal
p952
aVsprintf
p953
aVsprinti
p954
aVsqrt
p955
aVsqsort
p956
aVsrand
p957
aVstat2
p958
aVstat4
p959
aVstat_medrng
p960
aVstat_trim
p961
aVstatus_exit
p962
aVstdatmus_p2tdz
p963
aVstdatmus_z2tdp
p964
aVstddev
p965
aVstr_capital
p966
aVstr_concat
p967
aVstr_fields_count
p968
aVstr_get_cols
p969
aVstr_get_dq
p970
aVstr_get_field
p971
aVstr_get_nl
p972
aVstr_index_of_substr
p973
aVstr_insert
p974
aVstr_is_blank
p975
aVstr_join
p976
aVstr_left_strip
p977
aVstr_lower
p978
aVstr_match
p979
aVstr_match_ic
p980
aVstr_match_ind
p981
aVstr_match_ind_ic
p982
aVstr_right_strip
p983
aVstr_split
p984
aVstr_split_by_length
p985
aVstr_split_csv
p986
aVstr_squeeze
p987
aVstr_strip
p988
aVstr_sub_str
p989
aVstr_switch
p990
aVstr_upper
p991
aVstringtochar
p992
aVstringtocharacter
p993
aVstringtodouble
p994
aVstringtofloat
p995
aVstringtoint
p996
aVstringtointeger
p997
aVstringtolong
p998
aVstringtoshort
p999
aVstrlen
p1000
aVstudent_t
p1001
aVsum
p1002
aVsvd_lapack
p1003
aVsvdcov
p1004
aVsvdcov_sv
p1005
aVsvdstd
p1006
aVsvdstd_sv
p1007
aVsystem
p1008
aVsystemfunc
p1009
aVtan
p1010
aVtanh
p1011
aVtaper
p1012
aVtaper_n
p1013
aVtdclrs
p1014
aVtdctri
p1015
aVtdcudp
p1016
aVtdcurv
p1017
aVtddtri
p1018
aVtdez2d
p1019
aVtdez3d
p1020
aVtdgetp
p1021
aVtdgrds
p1022
aVtdgrid
p1023
aVtdgtrs
p1024
aVtdinit
p1025
aVtditri
p1026
aVtdlbla
p1027
aVtdlblp
p1028
aVtdlbls
p1029
aVtdline
p1030
aVtdlndp
p1031
aVtdlnpa
p1032
aVtdlpdp
p1033
aVtdmtri
p1034
aVtdotri
p1035
aVtdpara
p1036
aVtdplch
p1037
aVtdprpa
p1038
aVtdprpi
p1039
aVtdprpt
p1040
aVtdsetp
p1041
aVtdsort
p1042
aVtdstri
p1043
aVtdstrs
p1044
aVtdttri
p1045
aVtobyte
p1046
aVtochar
p1047
aVtodouble
p1048
aVtofloat
p1049
aVtoint
p1050
aVtoint64
p1051
aVtointeger
p1052
aVtolong
p1053
aVtoshort
p1054
aVtosigned
p1055
aVtostring
p1056
aVtoubyte
p1057
aVtouint
p1058
aVtouint64
p1059
aVtoulong
p1060
aVtounsigned
p1061
aVtoushort
p1062
aVtri_trunC
p1063
aVtri_trunc
p1064
aVtriple2grid
p1065
aVtriple2grid2d
p1066
aVtrop_wmo
p1067
aVttest
p1068
aVtypeof
p1069
aVundef
p1070
aVunique_string
p1071
aVupdate
p1072
aVushorttoint
p1073
aVut_calendar
p1074
aVut_inv_calendar
p1075
aVutm2latlon
p1076
aVuv2dv_cfd
p1077
aVuv2dvf
p1078
aVuv2dvF
p1079
aVuv2dvg
p1080
aVuv2dvG
p1081
aVuv2sfvpF
p1082
aVuv2sfvpf
p1083
aVuv2sfvpG
p1084
aVuv2sfvpg
p1085
aVuv2vr_cfd
p1086
aVuv2vrdvF
p1087
aVuv2vrdvf
p1088
aVuv2vrdvG
p1089
aVuv2vrdvg
p1090
aVuv2vrF
p1091
aVuv2vrf
p1092
aVuv2vrG
p1093
aVuv2vrg
p1094
aVv5d_close
p1095
aVv5d_create
p1096
aVv5d_setLowLev
p1097
aVv5d_setUnits
p1098
aVv5d_write
p1099
aVv5d_write_var
p1100
aVvariance
p1101
aVvhaeC
p1102
aVvhaec
p1103
aVvhagC
p1104
aVvhagc
p1105
aVvhseC
p1106
aVvhsec
p1107
aVvhsgc
p1108
aVvhsgC
p1109
aVvibeta
p1110
aVvinth2p
p1111
aVvinth2p_ecmwf
p1112
aVvinth2p_ecmwf_nodes
p1113
aVvinth2p_nodes
p1114
aVvintp2p_ecmwf
p1115
aVvr2uvf
p1116
aVvr2uvF
p1117
aVvr2uvg
p1118
aVvr2uvG
p1119
aVvrdv2uvf
p1120
aVvrdv2uvF
p1121
aVvrdv2uvg
p1122
aVvrdv2uvG
p1123
aVwavelet
p1124
aVwavelet_default
p1125
aVwgt_area_smooth
p1126
aVwgt_areaave
p1127
aVwgt_areaave2
p1128
aVwgt_arearmse
p1129
aVwgt_arearmse2
p1130
aVwgt_areasum2
p1131
aVwgt_runave
p1132
aVwgt_runave_n
p1133
aVwgt_vert_avg_beta
p1134
aVwgt_volave
p1135
aVwgt_volave_ccm
p1136
aVwgt_volrmse
p1137
aVwgt_volrmse_ccm
p1138
aVwhere
p1139
aVwk_smooth121
p1140
aVwmbarb
p1141
aVwmbarbmap
p1142
aVwmdrft
p1143
aVwmgetp
p1144
aVwmlabs
p1145
aVwmsetp
p1146
aVwmstnm
p1147
aVwmvect
p1148
aVwmvectmap
p1149
aVwmvlbl
p1150
aVwrf_avo
p1151
aVwrf_cape_2d
p1152
aVwrf_cape_3d
p1153
aVwrf_dbz
p1154
aVwrf_eth
p1155
aVwrf_helicity
p1156
aVwrf_ij_to_ll
p1157
aVwrf_interp_1d
p1158
aVwrf_interp_2d_xy
p1159
aVwrf_interp_3d_z
p1160
aVwrf_latlon_to_ij
p1161
aVwrf_ll_to_ij
p1162
aVwrf_pvo
p1163
aVwrf_rh
p1164
aVwrf_slp
p1165
aVwrf_smooth_2d
p1166
aVwrf_td
p1167
aVwrf_tk
p1168
aVwrf_updraft_helicity
p1169
aVwrf_uvmet
p1170
aVwrite_matrix
p1171
aVwrite_table
p1172
aVyiqrgb
p1173
aVz2geouv
p1174
aVzonal_mpsi
p1175
aasS'user'
p1176
(lp1177
S'ncl_key_user'
p1178
aS'Ncl user_contributed functions.'
p1179
aS'http://www.ncl.ucar.edu//Document/Functions/User_contributed/'
p1180
a(lp1181
Vcalendar_decode2
p1182
aVcd_string
p1183
aVkf_filter
p1184
aVrun_cor
p1185
aVtime_axis_labels
p1186
aVut_string
p1187
aasS'keywords'
p1188
(lp1189
S'ncl_key_keywords'
p1190
aS'Reserved Keywords in ncl.'
p1191
aS'http://www.ncl.ucar.edu/Document/Manuals/Ref_Manual/NclKeywords.shtml'
p1192
a(lp1193
Vbegin
p1194
aVbreak
p1195
aVbyte
p1196
aVcharacter
p1197
aVcontinue
p1198
aVcreate
p1199
aVdefaultapp
p1200
aVdo
p1201
aVdouble
p1202
aVelse
p1203
aVend
p1204
aVenumeric
p1205
aVexternal
p1206
aVFalse
p1207
aVfile
p1208
aVfloat
p1209
aVfunction
p1210
aVgetvalues
p1211
aVgraphic
p1212
aVgroup
p1213
aVif
p1214
aVinteger
p1215
aVint64
p1216
aVlist
p1217
aVload
p1218
aVlocal
p1219
aVlogical
p1220
aVlong
p1221
aVnew
p1222
aV_Missing
p1223
aVMissing
p1224
aVnew
p1225
aVnoparent
p1226
aVnumeric
p1227
aVprocedure
p1228
aVquit
p1229
aVQUIT
p1230
aVQuit
p1231
aVrecord
p1232
aVreturn
p1233
aVsetvalues
p1234
aVshort
p1235
aVsnumeric
p1236
aVstop
p1237
aVstring
p1238
aVthen
p1239
aVTrue
p1240
aVubyte
p1241
aVuint
p1242
aVuint64
p1243
aVulong
p1244
aVushort
p1245
aVwhile
p1246
aasS'skewt'
p1247
(lp1248
S'ncl_key_skewt'
p1249
aS'Ncl skewt functions.'
p1250
aS'http://www.ncl.ucar.edu//Document/Functions/Skewt_func/'
p1251
a(lp1252
VskewT_BackGround
p1253
aVskewT_PlotData
p1254
aasS'resources'
p1255
(lp1256
S'ncl_key_resources'
p1257
aS'Ncl resources.'
p1258
aS'http://www.ncl.ucar.edu/Document/Graphics/Resources/list_alpha_res.shtml'
p1259
a(lp1260
VamDataXF
p1261
aVamDataYF
p1262
aVamJust
p1263
aVamOn
p1264
aVamOrthogonalPosF
p1265
aVamParallelPosF
p1266
aVamResizeNotify
p1267
aVamSide
p1268
aVamTrackData
p1269
aVamViewId
p1270
aVamZone
p1271
aVappDefaultParent
p1272
aVappFileSuffix
p1273
aVappResources
p1274
aVappSysDir
p1275
aVappUsrDir
p1276
aVcaCopyArrays
p1277
aVcaXArray
p1278
aVcaXCast
p1279
aVcaXMaxV
p1280
aVcaXMinV
p1281
aVcaXMissingV
p1282
aVcaYArray
p1283
aVcaYCast
p1284
aVcaYMaxV
p1285
aVcaYMinV
p1286
aVcaYMissingV
p1287
aVcnCellFillEdgeColor
p1288
aVcnCellFillMissingValEdgeColor
p1289
aVcnConpackParams
p1290
aVcnConstFLabelAngleF
p1291
aVcnConstFLabelBackgroundColor
p1292
aVcnConstFLabelConstantSpacingF
p1293
aVcnConstFLabelFont
p1294
aVcnConstFLabelFontAspectF
p1295
aVcnConstFLabelFontColor
p1296
aVcnConstFLabelFontHeightF
p1297
aVcnConstFLabelFontQuality
p1298
aVcnConstFLabelFontThicknessF
p1299
aVcnConstFLabelFormat
p1300
aVcnConstFLabelFuncCode
p1301
aVcnConstFLabelJust
p1302
aVcnConstFLabelOn
p1303
aVcnConstFLabelOrthogonalPosF
p1304
aVcnConstFLabelParallelPosF
p1305
aVcnConstFLabelPerimColor
p1306
aVcnConstFLabelPerimOn
p1307
aVcnConstFLabelPerimSpaceF
p1308
aVcnConstFLabelPerimThicknessF
p1309
aVcnConstFLabelSide
p1310
aVcnConstFLabelString
p1311
aVcnConstFLabelTextDirection
p1312
aVcnConstFLabelZone
p1313
aVcnConstFUseInfoLabelRes
p1314
aVcnExplicitLabelBarLabelsOn
p1315
aVcnExplicitLegendLabelsOn
p1316
aVcnExplicitLineLabelsOn
p1317
aVcnFillBackgroundColor
p1318
aVcnFillColor
p1319
aVcnFillColors
p1320
aVcnFillDotSizeF
p1321
aVcnFillDrawOrder
p1322
aVcnFillMode
p1323
aVcnFillOn
p1324
aVcnFillOpacityF
p1325
aVcnFillPalette
p1326
aVcnFillPattern
p1327
aVcnFillPatterns
p1328
aVcnFillScaleF
p1329
aVcnFillScales
p1330
aVcnFixFillBleed
p1331
aVcnGridBoundFillColor
p1332
aVcnGridBoundFillPattern
p1333
aVcnGridBoundFillScaleF
p1334
aVcnGridBoundPerimColor
p1335
aVcnGridBoundPerimDashPattern
p1336
aVcnGridBoundPerimOn
p1337
aVcnGridBoundPerimThicknessF
p1338
aVcnHighLabelAngleF
p1339
aVcnHighLabelBackgroundColor
p1340
aVcnHighLabelConstantSpacingF
p1341
aVcnHighLabelCount
p1342
aVcnHighLabelFont
p1343
aVcnHighLabelFontAspectF
p1344
aVcnHighLabelFontColor
p1345
aVcnHighLabelFontHeightF
p1346
aVcnHighLabelFontQuality
p1347
aVcnHighLabelFontThicknessF
p1348
aVcnHighLabelFormat
p1349
aVcnHighLabelFuncCode
p1350
aVcnHighLabelPerimColor
p1351
aVcnHighLabelPerimOn
p1352
aVcnHighLabelPerimSpaceF
p1353
aVcnHighLabelPerimThicknessF
p1354
aVcnHighLabelString
p1355
aVcnHighLabelsOn
p1356
aVcnHighLowLabelOverlapMode
p1357
aVcnHighUseLineLabelRes
p1358
aVcnInfoLabelAngleF
p1359
aVcnInfoLabelBackgroundColor
p1360
aVcnInfoLabelConstantSpacingF
p1361
aVcnInfoLabelFont
p1362
aVcnInfoLabelFontAspectF
p1363
aVcnInfoLabelFontColor
p1364
aVcnInfoLabelFontHeightF
p1365
aVcnInfoLabelFontQuality
p1366
aVcnInfoLabelFontThicknessF
p1367
aVcnInfoLabelFormat
p1368
aVcnInfoLabelFuncCode
p1369
aVcnInfoLabelJust
p1370
aVcnInfoLabelOn
p1371
aVcnInfoLabelOrthogonalPosF
p1372
aVcnInfoLabelParallelPosF
p1373
aVcnInfoLabelPerimColor
p1374
aVcnInfoLabelPerimOn
p1375
aVcnInfoLabelPerimSpaceF
p1376
aVcnInfoLabelPerimThicknessF
p1377
aVcnInfoLabelSide
p1378
aVcnInfoLabelString
p1379
aVcnInfoLabelTextDirection
p1380
aVcnInfoLabelZone
p1381
aVcnLabelBarEndLabelsOn
p1382
aVcnLabelBarEndStyle
p1383
aVcnLabelDrawOrder
p1384
aVcnLabelMasking
p1385
aVcnLabelScaleFactorF
p1386
aVcnLabelScaleValueF
p1387
aVcnLabelScalingMode
p1388
aVcnLegendLevelFlags
p1389
aVcnLevelCount
p1390
aVcnLevelFlag
p1391
aVcnLevelFlags
p1392
aVcnLevelSelectionMode
p1393
aVcnLevelSpacingF
p1394
aVcnLevels
p1395
aVcnLineColor
p1396
aVcnLineColors
p1397
aVcnLineDashPattern
p1398
aVcnLineDashPatterns
p1399
aVcnLineDashSegLenF
p1400
aVcnLineDrawOrder
p1401
aVcnLineLabelAngleF
p1402
aVcnLineLabelBackgroundColor
p1403
aVcnLineLabelConstantSpacingF
p1404
aVcnLineLabelCount
p1405
aVcnLineLabelDensityF
p1406
aVcnLineLabelFont
p1407
aVcnLineLabelFontAspectF
p1408
aVcnLineLabelFontColor
p1409
aVcnLineLabelFontColors
p1410
aVcnLineLabelFontHeightF
p1411
aVcnLineLabelFontQuality
p1412
aVcnLineLabelFontThicknessF
p1413
aVcnLineLabelFormat
p1414
aVcnLineLabelFuncCode
p1415
aVcnLineLabelInterval
p1416
aVcnLineLabelPerimColor
p1417
aVcnLineLabelPerimOn
p1418
aVcnLineLabelPerimSpaceF
p1419
aVcnLineLabelPerimThicknessF
p1420
aVcnLineLabelPlacementMode
p1421
aVcnLineLabelStrings
p1422
aVcnLineLabelsOn
p1423
aVcnLinePalette
p1424
aVcnLineThicknessF
p1425
aVcnLineThicknesses
p1426
aVcnLinesOn
p1427
aVcnLowLabelAngleF
p1428
aVcnLowLabelBackgroundColor
p1429
aVcnLowLabelConstantSpacingF
p1430
aVcnLowLabelCount
p1431
aVcnLowLabelFont
p1432
aVcnLowLabelFontAspectF
p1433
aVcnLowLabelFontColor
p1434
aVcnLowLabelFontHeightF
p1435
aVcnLowLabelFontQuality
p1436
aVcnLowLabelFontThicknessF
p1437
aVcnLowLabelFormat
p1438
aVcnLowLabelFuncCode
p1439
aVcnLowLabelPerimColor
p1440
aVcnLowLabelPerimOn
p1441
aVcnLowLabelPerimSpaceF
p1442
aVcnLowLabelPerimThicknessF
p1443
aVcnLowLabelString
p1444
aVcnLowLabelsOn
p1445
aVcnLowUseHighLabelRes
p1446
aVcnMaxDataValueFormat
p1447
aVcnMaxLevelCount
p1448
aVcnMaxLevelValF
p1449
aVcnMaxPointDistanceF
p1450
aVcnMinLevelValF
p1451
aVcnMissingValFillColor
p1452
aVcnMissingValFillPattern
p1453
aVcnMissingValFillScaleF
p1454
aVcnMissingValPerimColor
p1455
aVcnMissingValPerimDashPattern
p1456
aVcnMissingValPerimGridBoundOn
p1457
aVcnMissingValPerimOn
p1458
aVcnMissingValPerimThicknessF
p1459
aVcnMonoFillColor
p1460
aVcnMonoFillPattern
p1461
aVcnMonoFillScale
p1462
aVcnMonoLevelFlag
p1463
aVcnMonoLineColor
p1464
aVcnMonoLineDashPattern
p1465
aVcnMonoLineLabelFontColor
p1466
aVcnMonoLineThickness
p1467
aVcnNoDataLabelOn
p1468
aVcnNoDataLabelString
p1469
aVcnOutOfRangeFillColor
p1470
aVcnOutOfRangeFillPattern
p1471
aVcnOutOfRangeFillScaleF
p1472
aVcnOutOfRangePerimColor
p1473
aVcnOutOfRangePerimDashPattern
p1474
aVcnOutOfRangePerimOn
p1475
aVcnOutOfRangePerimThicknessF
p1476
aVcnRasterCellSizeF
p1477
aVcnRasterMinCellSizeF
p1478
aVcnRasterModeOn
p1479
aVcnRasterSampleFactorF
p1480
aVcnRasterSmoothingOn
p1481
aVcnScalarFieldData
p1482
aVcnSmoothingDistanceF
p1483
aVcnSmoothingOn
p1484
aVcnSmoothingTensionF
p1485
aVcnSpanFillPalette
p1486
aVcnSpanLinePalette
p1487
aVctCopyTables
p1488
aVctXElementSize
p1489
aVctXMaxV
p1490
aVctXMinV
p1491
aVctXMissingV
p1492
aVctXTable
p1493
aVctXTableLengths
p1494
aVctXTableType
p1495
aVctYElementSize
p1496
aVctYMaxV
p1497
aVctYMinV
p1498
aVctYMissingV
p1499
aVctYTable
p1500
aVctYTableLengths
p1501
aVctYTableType
p1502
aVdcDelayCompute
p1503
aVerrBuffer
p1504
aVerrFileName
p1505
aVerrFilePtr
p1506
aVerrLevel
p1507
aVerrPrint
p1508
aVerrUnitNumber
p1509
aVgsClipOn
p1510
aVgsEdgeColor
p1511
aVgsEdgeDashPattern
p1512
aVgsEdgeDashSegLenF
p1513
aVgsEdgeThicknessF
p1514
aVgsEdgesOn
p1515
aVgsFillBackgroundColor
p1516
aVgsFillColor
p1517
aVgsFillDotSizeF
p1518
aVgsFillIndex
p1519
aVgsFillLineThicknessF
p1520
aVgsFillOpacityF
p1521
aVgsFillScaleF
p1522
aVgsFont
p1523
aVgsFontAspectF
p1524
aVgsFontColor
p1525
aVgsFontHeightF
p1526
aVgsFontOpacityF
p1527
aVgsFontQuality
p1528
aVgsFontThicknessF
p1529
aVgsLineColor
p1530
aVgsLineDashPattern
p1531
aVgsLineDashSegLenF
p1532
aVgsLineLabelConstantSpacingF
p1533
aVgsLineLabelFont
p1534
aVgsLineLabelFontAspectF
p1535
aVgsLineLabelFontColor
p1536
aVgsLineLabelFontHeightF
p1537
aVgsLineLabelFontQuality
p1538
aVgsLineLabelFontThicknessF
p1539
aVgsLineLabelFuncCode
p1540
aVgsLineLabelString
p1541
aVgsLineOpacityF
p1542
aVgsLineThicknessF
p1543
aVgsMarkerColor
p1544
aVgsMarkerIndex
p1545
aVgsMarkerOpacityF
p1546
aVgsMarkerSizeF
p1547
aVgsMarkerThicknessF
p1548
aVgsTextAngleF
p1549
aVgsTextConstantSpacingF
p1550
aVgsTextDirection
p1551
aVgsTextFuncCode
p1552
aVgsTextJustification
p1553
aVgsnAboveYRefLineBarColors
p1554
aVgsnAboveYRefLineBarFillScales
p1555
aVgsnAboveYRefLineBarPatterns
p1556
aVgsnAboveYRefLineColor
p1557
aVgsnAddCyclic
p1558
aVgsnAttachBorderOn
p1559
aVgsnAttachPlotsXAxis
p1560
aVgsnBelowYRefLineBarColors
p1561
aVgsnBelowYRefLineBarFillScales
p1562
aVgsnBelowYRefLineBarPatterns
p1563
aVgsnBelowYRefLineColor
p1564
aVgsnBoxMargin
p1565
aVgsnCenterString
p1566
aVgsnCenterStringFontColor
p1567
aVgsnCenterStringFontHeightF
p1568
aVgsnCenterStringOrthogonalPosF
p1569
aVgsnCenterStringParallelPosF
p1570
aVgsnContourLineThicknessesScale
p1571
aVgsnContourNegLineDashPattern
p1572
aVgsnContourPosLineDashPattern
p1573
aVgsnContourZeroLineThicknessF
p1574
aVgsnDebugWriteFileName
p1575
aVgsnDraw
p1576
aVgsnFrame
p1577
aVgsnHistogramBarWidthPercent
p1578
aVgsnHistogramBinIntervals
p1579
aVgsnHistogramBinMissing
p1580
aVgsnHistogramBinWidth
p1581
aVgsnHistogramClassIntervals
p1582
aVgsnHistogramCompare
p1583
aVgsnHistogramComputePercentages
p1584
aVgsnHistogramComputePercentagesNoMissing
p1585
aVgsnHistogramDiscreteBinValues
p1586
aVgsnHistogramDiscreteClassValues
p1587
aVgsnHistogramHorizontal
p1588
aVgsnHistogramMinMaxBinsOn
p1589
aVgsnHistogramNumberOfBins
p1590
aVgsnHistogramPercentSign
p1591
aVgsnHistogramSelectNiceIntervals
p1592
aVgsnLeftString
p1593
aVgsnLeftStringFontColor
p1594
aVgsnLeftStringFontHeightF
p1595
aVgsnLeftStringOrthogonalPosF
p1596
aVgsnLeftStringParallelPosF
p1597
aVgsnMajorLatSpacing
p1598
aVgsnMajorLonSpacing
p1599
aVgsnMaskLambertConformal
p1600
aVgsnMaskLambertConformalOutlineOn
p1601
aVgsnMaximize
p1602
aVgsnMinorLatSpacing
p1603
aVgsnMinorLonSpacing
p1604
aVgsnPanelBottom
p1605
aVgsnPanelCenter
p1606
aVgsnPanelDebug
p1607
aVgsnPanelFigureStrings
p1608
aVgsnPanelFigureStringsBackgroundFillColor
p1609
aVgsnPanelFigureStringsFontHeightF
p1610
aVgsnPanelFigureStringsPerimOn
p1611
aVgsnPanelLabelBar
p1612
aVgsnPanelLeft
p1613
aVgsnPanelRight
p1614
aVgsnPanelRowSpec
p1615
aVgsnPanelScalePlotIndex
p1616
aVgsnPanelTop
p1617
aVgsnPanelXF
p1618
aVgsnPanelXWhiteSpacePercent
p1619
aVgsnPanelYF
p1620
aVgsnPanelYWhiteSpacePercent
p1621
aVgsnPaperHeight
p1622
aVgsnPaperMargin
p1623
aVgsnPaperOrientation
p1624
aVgsnPaperWidth
p1625
aVgsnPolar
p1626
aVgsnPolarLabelDistance
p1627
aVgsnPolarLabelFont
p1628
aVgsnPolarLabelFontHeightF
p1629
aVgsnPolarLabelSpacing
p1630
aVgsnPolarTime
p1631
aVgsnPolarUT
p1632
aVgsnRightString
p1633
aVgsnRightStringFontColor
p1634
aVgsnRightStringFontHeightF
p1635
aVgsnRightStringOrthogonalPosF
p1636
aVgsnRightStringParallelPosF
p1637
aVgsnScalarContour
p1638
aVgsnScale
p1639
aVgsnShape
p1640
aVgsnSpreadColorEnd
p1641
aVgsnSpreadColorStart
p1642
aVgsnSpreadColors
p1643
aVgsnStringFont
p1644
aVgsnStringFontColor
p1645
aVgsnStringFontHeightF
p1646
aVgsnTickMarksOn
p1647
aVgsnXAxisIrregular2Linear
p1648
aVgsnXAxisIrregular2Log
p1649
aVgsnXRefLine
p1650
aVgsnXRefLineColor
p1651
aVgsnXRefLineDashPattern
p1652
aVgsnXRefLineThicknessF
p1653
aVgsnXYAboveFillColors
p1654
aVgsnXYBarChart
p1655
aVgsnXYBarChartBarWidth
p1656
aVgsnXYBarChartColors
p1657
aVgsnXYBarChartColors2
p1658
aVgsnXYBarChartFillDotSizeF
p1659
aVgsnXYBarChartFillLineThicknessF
p1660
aVgsnXYBarChartFillScaleF
p1661
aVgsnXYBarChartOutlineOnly
p1662
aVgsnXYBarChartOutlineThicknessF
p1663
aVgsnXYBarChartPatterns
p1664
aVgsnXYBarChartPatterns2
p1665
aVgsnXYBelowFillColors
p1666
aVgsnXYFillColors
p1667
aVgsnXYLeftFillColors
p1668
aVgsnXYRightFillColors
p1669
aVgsnYAxisIrregular2Linear
p1670
aVgsnYAxisIrregular2Log
p1671
aVgsnYRefLine
p1672
aVgsnYRefLineColor
p1673
aVgsnYRefLineColors
p1674
aVgsnYRefLineDashPattern
p1675
aVgsnYRefLineDashPatterns
p1676
aVgsnYRefLineThicknessF
p1677
aVgsnYRefLineThicknesses
p1678
aVgsnZonalMean
p1679
aVgsnZonalMeanXMaxF
p1680
aVgsnZonalMeanXMinF
p1681
aVgsnZonalMeanYRefLine
p1682
aVlbAutoManage
p1683
aVlbBottomMarginF
p1684
aVlbBoxCount
p1685
aVlbBoxFractions
p1686
aVlbBoxLineColor
p1687
aVlbBoxLineDashPattern
p1688
aVlbBoxLineDashSegLenF
p1689
aVlbBoxLineThicknessF
p1690
aVlbBoxLinesOn
p1691
aVlbBoxMajorExtentF
p1692
aVlbBoxMinorExtentF
p1693
aVlbBoxSizing
p1694
aVlbFillBackground
p1695
aVlbFillColor
p1696
aVlbFillColors
p1697
aVlbFillDotSizeF
p1698
aVlbFillLineThicknessF
p1699
aVlbFillPattern
p1700
aVlbFillPatterns
p1701
aVlbFillScaleF
p1702
aVlbFillScales
p1703
aVlbJustification
p1704
aVlbLabelAlignment
p1705
aVlbLabelAngleF
p1706
aVlbLabelAutoStride
p1707
aVlbLabelBarOn
p1708
aVlbLabelConstantSpacingF
p1709
aVlbLabelDirection
p1710
aVlbLabelFont
p1711
aVlbLabelFontAspectF
p1712
aVlbLabelFontColor
p1713
aVlbLabelFontHeightF
p1714
aVlbLabelFontQuality
p1715
aVlbLabelFontThicknessF
p1716
aVlbLabelFuncCode
p1717
aVlbLabelJust
p1718
aVlbLabelOffsetF
p1719
aVlbLabelPosition
p1720
aVlbLabelStride
p1721
aVlbLabelStrings
p1722
aVlbLabelsOn
p1723
aVlbLeftMarginF
p1724
aVlbMaxLabelLenF
p1725
aVlbMinLabelSpacingF
p1726
aVlbMonoFillColor
p1727
aVlbMonoFillPattern
p1728
aVlbMonoFillScale
p1729
aVlbOrientation
p1730
aVlbPerimColor
p1731
aVlbPerimDashPattern
p1732
aVlbPerimDashSegLenF
p1733
aVlbPerimFill
p1734
aVlbPerimFillColor
p1735
aVlbPerimOn
p1736
aVlbPerimThicknessF
p1737
aVlbRasterFillOn
p1738
aVlbRightMarginF
p1739
aVlbTitleAngleF
p1740
aVlbTitleConstantSpacingF
p1741
aVlbTitleDirection
p1742
aVlbTitleExtentF
p1743
aVlbTitleFont
p1744
aVlbTitleFontAspectF
p1745
aVlbTitleFontColor
p1746
aVlbTitleFontHeightF
p1747
aVlbTitleFontQuality
p1748
aVlbTitleFontThicknessF
p1749
aVlbTitleFuncCode
p1750
aVlbTitleJust
p1751
aVlbTitleOffsetF
p1752
aVlbTitleOn
p1753
aVlbTitlePosition
p1754
aVlbTitleString
p1755
aVlbTopMarginF
p1756
aVlgAutoManage
p1757
aVlgBottomMarginF
p1758
aVlgBoxBackground
p1759
aVlgBoxLineColor
p1760
aVlgBoxLineDashPattern
p1761
aVlgBoxLineDashSegLenF
p1762
aVlgBoxLineThicknessF
p1763
aVlgBoxLinesOn
p1764
aVlgBoxMajorExtentF
p1765
aVlgBoxMinorExtentF
p1766
aVlgDashIndex
p1767
aVlgDashIndexes
p1768
aVlgItemCount
p1769
aVlgItemOrder
p1770
aVlgItemPlacement
p1771
aVlgItemPositions
p1772
aVlgItemType
p1773
aVlgItemTypes
p1774
aVlgJustification
p1775
aVlgLabelAlignment
p1776
aVlgLabelAngleF
p1777
aVlgLabelAutoStride
p1778
aVlgLabelConstantSpacingF
p1779
aVlgLabelDirection
p1780
aVlgLabelFont
p1781
aVlgLabelFontAspectF
p1782
aVlgLabelFontColor
p1783
aVlgLabelFontHeightF
p1784
aVlgLabelFontQuality
p1785
aVlgLabelFontThicknessF
p1786
aVlgLabelFuncCode
p1787
aVlgLabelJust
p1788
aVlgLabelOffsetF
p1789
aVlgLabelPosition
p1790
aVlgLabelStride
p1791
aVlgLabelStrings
p1792
aVlgLabelsOn
p1793
aVlgLeftMarginF
p1794
aVlgLegendOn
p1795
aVlgLineColor
p1796
aVlgLineColors
p1797
aVlgLineDashSegLenF
p1798
aVlgLineDashSegLens
p1799
aVlgLineLabelConstantSpacingF
p1800
aVlgLineLabelFont
p1801
aVlgLineLabelFontAspectF
p1802
aVlgLineLabelFontColor
p1803
aVlgLineLabelFontColors
p1804
aVlgLineLabelFontHeightF
p1805
aVlgLineLabelFontHeights
p1806
aVlgLineLabelFontQuality
p1807
aVlgLineLabelFontThicknessF
p1808
aVlgLineLabelFuncCode
p1809
aVlgLineLabelStrings
p1810
aVlgLineLabelsOn
p1811
aVlgLineThicknessF
p1812
aVlgLineThicknesses
p1813
aVlgMarkerColor
p1814
aVlgMarkerColors
p1815
aVlgMarkerIndex
p1816
aVlgMarkerIndexes
p1817
aVlgMarkerSizeF
p1818
aVlgMarkerSizes
p1819
aVlgMarkerThicknessF
p1820
aVlgMarkerThicknesses
p1821
aVlgMonoDashIndex
p1822
aVlgMonoItemType
p1823
aVlgMonoLineColor
p1824
aVlgMonoLineDashSegLen
p1825
aVlgMonoLineLabelFontColor
p1826
aVlgMonoLineLabelFontHeight
p1827
aVlgMonoLineThickness
p1828
aVlgMonoMarkerColor
p1829
aVlgMonoMarkerIndex
p1830
aVlgMonoMarkerSize
p1831
aVlgMonoMarkerThickness
p1832
aVlgOrientation
p1833
aVlgPerimColor
p1834
aVlgPerimDashPattern
p1835
aVlgPerimDashSegLenF
p1836
aVlgPerimFill
p1837
aVlgPerimFillColor
p1838
aVlgPerimOn
p1839
aVlgPerimThicknessF
p1840
aVlgRightMarginF
p1841
aVlgTitleAngleF
p1842
aVlgTitleConstantSpacingF
p1843
aVlgTitleDirection
p1844
aVlgTitleExtentF
p1845
aVlgTitleFont
p1846
aVlgTitleFontAspectF
p1847
aVlgTitleFontColor
p1848
aVlgTitleFontHeightF
p1849
aVlgTitleFontQuality
p1850
aVlgTitleFontThicknessF
p1851
aVlgTitleFuncCode
p1852
aVlgTitleJust
p1853
aVlgTitleOffsetF
p1854
aVlgTitleOn
p1855
aVlgTitlePosition
p1856
aVlgTitleString
p1857
aVlgTopMarginF
p1858
aVmpAreaGroupCount
p1859
aVmpAreaMaskingOn
p1860
aVmpAreaNames
p1861
aVmpAreaTypes
p1862
aVmpBottomAngleF
p1863
aVmpBottomMapPosF
p1864
aVmpBottomNDCF
p1865
aVmpBottomNPCF
p1866
aVmpBottomPointLatF
p1867
aVmpBottomPointLonF
p1868
aVmpBottomWindowF
p1869
aVmpCenterLatF
p1870
aVmpCenterLonF
p1871
aVmpCenterRotF
p1872
aVmpCountyLineColor
p1873
aVmpCountyLineDashPattern
p1874
aVmpCountyLineDashSegLenF
p1875
aVmpCountyLineThicknessF
p1876
aVmpDataBaseVersion
p1877
aVmpDataResolution
p1878
aVmpDataSetName
p1879
aVmpDefaultFillColor
p1880
aVmpDefaultFillPattern
p1881
aVmpDefaultFillScaleF
p1882
aVmpDynamicAreaGroups
p1883
aVmpEllipticalBoundary
p1884
aVmpFillAreaSpecifiers
p1885
aVmpFillBoundarySets
p1886
aVmpFillColor
p1887
aVmpFillColors
p1888
aVmpFillDotSizeF
p1889
aVmpFillDrawOrder
p1890
aVmpFillOn
p1891
aVmpFillPatternBackground
p1892
aVmpFillPattern
p1893
aVmpFillPatterns
p1894
aVmpFillScaleF
p1895
aVmpFillScales
p1896
aVmpFixedAreaGroups
p1897
aVmpGeophysicalLineColor
p1898
aVmpGeophysicalLineDashPattern
p1899
aVmpGeophysicalLineDashSegLenF
p1900
aVmpGeophysicalLineThicknessF
p1901
aVmpGreatCircleLinesOn
p1902
aVmpGridAndLimbDrawOrder
p1903
aVmpGridAndLimbOn
p1904
aVmpGridLatSpacingF
p1905
aVmpGridLineColor
p1906
aVmpGridLineDashPattern
p1907
aVmpGridLineDashSegLenF
p1908
aVmpGridLineThicknessF
p1909
aVmpGridLonSpacingF
p1910
aVmpGridMaskMode
p1911
aVmpGridMaxLatF
p1912
aVmpGridPolarLonSpacingF
p1913
aVmpGridSpacingF
p1914
aVmpInlandWaterFillColor
p1915
aVmpInlandWaterFillPattern
p1916
aVmpInlandWaterFillScaleF
p1917
aVmpLabelDrawOrder
p1918
aVmpLabelFontColor
p1919
aVmpLabelFontHeightF
p1920
aVmpLabelsOn
p1921
aVmpLambertMeridianF
p1922
aVmpLambertParallel1F
p1923
aVmpLambertParallel2F
p1924
aVmpLandFillColor
p1925
aVmpLandFillPattern
p1926
aVmpLandFillScaleF
p1927
aVmpLeftAngleF
p1928
aVmpLeftCornerLatF
p1929
aVmpLeftCornerLonF
p1930
aVmpLeftMapPosF
p1931
aVmpLeftNDCF
p1932
aVmpLeftNPCF
p1933
aVmpLeftPointLatF
p1934
aVmpLeftPointLonF
p1935
aVmpLeftWindowF
p1936
aVmpLimbLineColor
p1937
aVmpLimbLineDashPattern
p1938
aVmpLimbLineDashSegLenF
p1939
aVmpLimbLineThicknessF
p1940
aVmpLimitMode
p1941
aVmpMaskAreaSpecifiers
p1942
aVmpMaskOutlineSpecifiers
p1943
aVmpMaxLatF
p1944
aVmpMaxLonF
p1945
aVmpMinLatF
p1946
aVmpMinLonF
p1947
aVmpMonoFillColor
p1948
aVmpMonoFillPattern
p1949
aVmpMonoFillScale
p1950
aVmpNationalLineColor
p1951
aVmpNationalLineDashPattern
p1952
aVmpNationalLineDashSegLenF
p1953
aVmpNationalLineThicknessF
p1954
aVmpOceanFillColor
p1955
aVmpOceanFillPattern
p1956
aVmpOceanFillScaleF
p1957
aVmpOutlineBoundarySets
p1958
aVmpOutlineDrawOrder
p1959
aVmpOutlineMaskingOn
p1960
aVmpOutlineOn
p1961
aVmpOutlineSpecifiers
p1962
aVmpPerimDrawOrder
p1963
aVmpPerimLineColor
p1964
aVmpPerimLineDashPattern
p1965
aVmpPerimLineDashSegLenF
p1966
aVmpPerimLineThicknessF
p1967
aVmpPerimOn
p1968
aVmpProjection
p1969
aVmpProvincialLineColor
p1970
aVmpProvincialLineDashPattern
p1971
aVmpProvincialLineDashSegLenF
p1972
aVmpProvincialLineThicknessF
p1973
aVmpRelativeCenterLat
p1974
aVmpRelativeCenterLon
p1975
aVmpRightAngleF
p1976
aVmpRightCornerLatF
p1977
aVmpRightCornerLonF
p1978
aVmpRightMapPosF
p1979
aVmpRightNDCF
p1980
aVmpRightNPCF
p1981
aVmpRightPointLatF
p1982
aVmpRightPointLonF
p1983
aVmpRightWindowF
p1984
aVmpSatelliteAngle1F
p1985
aVmpSatelliteAngle2F
p1986
aVmpSatelliteDistF
p1987
aVmpShapeMode
p1988
aVmpSpecifiedFillColors
p1989
aVmpSpecifiedFillDirectIndexing
p1990
aVmpSpecifiedFillPatterns
p1991
aVmpSpecifiedFillPriority
p1992
aVmpSpecifiedFillScales
p1993
aVmpTopAngleF
p1994
aVmpTopMapPosF
p1995
aVmpTopNDCF
p1996
aVmpTopNPCF
p1997
aVmpTopPointLatF
p1998
aVmpTopPointLonF
p1999
aVmpTopWindowF
p2000
aVmpUSStateLineColor
p2001
aVmpUSStateLineDashPattern
p2002
aVmpUSStateLineDashSegLenF
p2003
aVmpUSStateLineThicknessF
p2004
aVpmAnnoManagers
p2005
aVpmAnnoViews
p2006
aVpmLabelBarDisplayMode
p2007
aVpmLabelBarHeightF
p2008
aVpmLabelBarKeepAspect
p2009
aVpmLabelBarOrthogonalPosF
p2010
aVpmLabelBarParallelPosF
p2011
aVpmLabelBarSide
p2012
aVpmLabelBarWidthF
p2013
aVpmLabelBarZone
p2014
aVpmLegendDisplayMode
p2015
aVpmLegendHeightF
p2016
aVpmLegendKeepAspect
p2017
aVpmLegendOrthogonalPosF
p2018
aVpmLegendParallelPosF
p2019
aVpmLegendSide
p2020
aVpmLegendWidthF
p2021
aVpmLegendZone
p2022
aVpmOverlaySequenceIds
p2023
aVpmTickMarkDisplayMode
p2024
aVpmTickMarkZone
p2025
aVpmTitleDisplayMode
p2026
aVpmTitleZone
p2027
aVprGraphicStyle
p2028
aVprPolyType
p2029
aVprXArray
p2030
aVprYArray
p2031
aVsfCopyData
p2032
aVsfCopyData
p2033
aVsfDataArray
p2034
aVsfDataArray
p2035
aVsfDataMaxV
p2036
aVsfDataMaxV
p2037
aVsfDataMinV
p2038
aVsfDataMinV
p2039
aVsfElementNodes
p2040
aVsfExchangeDimensions
p2041
aVsfFirstNodeIndex
p2042
aVsfMissingValueV
p2043
aVsfMissingValueV
p2044
aVsfXArray
p2045
aVsfXArray
p2046
aVsfXCActualEndF
p2047
aVsfXCActualEndF
p2048
aVsfXCActualStartF
p2049
aVsfXCActualStartF
p2050
aVsfXCEndIndex
p2051
aVsfXCEndSubsetV
p2052
aVsfXCEndV
p2053
aVsfXCStartIndex
p2054
aVsfXCStartSubsetV
p2055
aVsfXCStartV
p2056
aVsfXCStride
p2057
aVsfXCellBounds
p2058
aVsfYArray
p2059
aVsfYArray
p2060
aVsfYCActualEndF
p2061
aVsfYCActualEndF
p2062
aVsfYCActualStartF
p2063
aVsfYCActualStartF
p2064
aVsfYCEndIndex
p2065
aVsfYCEndSubsetV
p2066
aVsfYCEndV
p2067
aVsfYCStartIndex
p2068
aVsfYCStartSubsetV
p2069
aVsfYCStartV
p2070
aVsfYCStride
p2071
aVsfYCellBounds
p2072
aVstArrowLengthF
p2073
aVstArrowStride
p2074
aVstCrossoverCheckCount
p2075
aVstExplicitLabelBarLabelsOn
p2076
aVstLabelBarEndLabelsOn
p2077
aVstLabelFormat
p2078
aVstLengthCheckCount
p2079
aVstLevelColors
p2080
aVstLevelCount
p2081
aVstLevelPalette
p2082
aVstLevelSelectionMode
p2083
aVstLevelSpacingF
p2084
aVstLevels
p2085
aVstLineColor
p2086
aVstLineOpacityF
p2087
aVstLineStartStride
p2088
aVstLineThicknessF
p2089
aVstMapDirection
p2090
aVstMaxLevelCount
p2091
aVstMaxLevelValF
p2092
aVstMinArrowSpacingF
p2093
aVstMinDistanceF
p2094
aVstMinLevelValF
p2095
aVstMinLineSpacingF
p2096
aVstMinStepFactorF
p2097
aVstMonoLineColor
p2098
aVstNoDataLabelOn
p2099
aVstNoDataLabelString
p2100
aVstScalarFieldData
p2101
aVstScalarMissingValColor
p2102
aVstSpanLevelPalette
p2103
aVstStepSizeF
p2104
aVstStreamlineDrawOrder
p2105
aVstUseScalarArray
p2106
aVstVectorFieldData
p2107
aVstZeroFLabelAngleF
p2108
aVstZeroFLabelBackgroundColor
p2109
aVstZeroFLabelConstantSpacingF
p2110
aVstZeroFLabelFont
p2111
aVstZeroFLabelFontAspectF
p2112
aVstZeroFLabelFontColor
p2113
aVstZeroFLabelFontHeightF
p2114
aVstZeroFLabelFontQuality
p2115
aVstZeroFLabelFontThicknessF
p2116
aVstZeroFLabelFuncCode
p2117
aVstZeroFLabelJust
p2118
aVstZeroFLabelOn
p2119
aVstZeroFLabelOrthogonalPosF
p2120
aVstZeroFLabelParallelPosF
p2121
aVstZeroFLabelPerimColor
p2122
aVstZeroFLabelPerimOn
p2123
aVstZeroFLabelPerimSpaceF
p2124
aVstZeroFLabelPerimThicknessF
p2125
aVstZeroFLabelSide
p2126
aVstZeroFLabelString
p2127
aVstZeroFLabelTextDirection
p2128
aVstZeroFLabelZone
p2129
aVtfDoNDCOverlay
p2130
aVtfPlotManagerOn
p2131
aVtfPolyDrawList
p2132
aVtfPolyDrawOrder
p2133
aVtiDeltaF
p2134
aVtiMainAngleF
p2135
aVtiMainConstantSpacingF
p2136
aVtiMainDirection
p2137
aVtiMainFont
p2138
aVtiMainFontAspectF
p2139
aVtiMainFontColor
p2140
aVtiMainFontHeightF
p2141
aVtiMainFontQuality
p2142
aVtiMainFontThicknessF
p2143
aVtiMainFuncCode
p2144
aVtiMainJust
p2145
aVtiMainOffsetXF
p2146
aVtiMainOffsetYF
p2147
aVtiMainOn
p2148
aVtiMainPosition
p2149
aVtiMainSide
p2150
aVtiMainString
p2151
aVtiUseMainAttributes
p2152
aVtiXAxisAngleF
p2153
aVtiXAxisConstantSpacingF
p2154
aVtiXAxisDirection
p2155
aVtiXAxisFont
p2156
aVtiXAxisFontAspectF
p2157
aVtiXAxisFontColor
p2158
aVtiXAxisFontHeightF
p2159
aVtiXAxisFontQuality
p2160
aVtiXAxisFontThicknessF
p2161
aVtiXAxisFuncCode
p2162
aVtiXAxisJust
p2163
aVtiXAxisOffsetXF
p2164
aVtiXAxisOffsetYF
p2165
aVtiXAxisOn
p2166
aVtiXAxisPosition
p2167
aVtiXAxisSide
p2168
aVtiXAxisString
p2169
aVtiYAxisAngleF
p2170
aVtiYAxisConstantSpacingF
p2171
aVtiYAxisDirection
p2172
aVtiYAxisFont
p2173
aVtiYAxisFontAspectF
p2174
aVtiYAxisFontColor
p2175
aVtiYAxisFontHeightF
p2176
aVtiYAxisFontQuality
p2177
aVtiYAxisFontThicknessF
p2178
aVtiYAxisFuncCode
p2179
aVtiYAxisJust
p2180
aVtiYAxisOffsetXF
p2181
aVtiYAxisOffsetYF
p2182
aVtiYAxisOn
p2183
aVtiYAxisPosition
p2184
aVtiYAxisSide
p2185
aVtiYAxisString
p2186
aVtmBorderLineColor
p2187
aVtmBorderThicknessF
p2188
aVtmEqualizeXYSizes
p2189
aVtmLabelAutoStride
p2190
aVtmSciNoteCutoff
p2191
aVtmXBAutoPrecision
p2192
aVtmXBBorderOn
p2193
aVtmXBDataLeftF
p2194
aVtmXBDataRightF
p2195
aVtmXBFormat
p2196
aVtmXBIrrTensionF
p2197
aVtmXBIrregularPoints
p2198
aVtmXBLabelAngleF
p2199
aVtmXBLabelConstantSpacingF
p2200
aVtmXBLabelDeltaF
p2201
aVtmXBLabelDirection
p2202
aVtmXBLabelFont
p2203
aVtmXBLabelFontAspectF
p2204
aVtmXBLabelFontColor
p2205
aVtmXBLabelFontHeightF
p2206
aVtmXBLabelFontQuality
p2207
aVtmXBLabelFontThicknessF
p2208
aVtmXBLabelFuncCode
p2209
aVtmXBLabelJust
p2210
aVtmXBLabelStride
p2211
aVtmXBLabels
p2212
aVtmXBLabelsOn
p2213
aVtmXBMajorLengthF
p2214
aVtmXBMajorLineColor
p2215
aVtmXBMajorOutwardLengthF
p2216
aVtmXBMajorThicknessF
p2217
aVtmXBMaxLabelLenF
p2218
aVtmXBMaxTicks
p2219
aVtmXBMinLabelSpacingF
p2220
aVtmXBMinorLengthF
p2221
aVtmXBMinorLineColor
p2222
aVtmXBMinorOn
p2223
aVtmXBMinorOutwardLengthF
p2224
aVtmXBMinorPerMajor
p2225
aVtmXBMinorThicknessF
p2226
aVtmXBMinorValues
p2227
aVtmXBMode
p2228
aVtmXBOn
p2229
aVtmXBPrecision
p2230
aVtmXBStyle
p2231
aVtmXBTickEndF
p2232
aVtmXBTickSpacingF
p2233
aVtmXBTickStartF
p2234
aVtmXBValues
p2235
aVtmXMajorGrid
p2236
aVtmXMajorGridLineColor
p2237
aVtmXMajorGridLineDashPattern
p2238
aVtmXMajorGridThicknessF
p2239
aVtmXMinorGrid
p2240
aVtmXMinorGridLineColor
p2241
aVtmXMinorGridLineDashPattern
p2242
aVtmXMinorGridThicknessF
p2243
aVtmXTAutoPrecision
p2244
aVtmXTBorderOn
p2245
aVtmXTDataLeftF
p2246
aVtmXTDataRightF
p2247
aVtmXTFormat
p2248
aVtmXTIrrTensionF
p2249
aVtmXTIrregularPoints
p2250
aVtmXTLabelAngleF
p2251
aVtmXTLabelConstantSpacingF
p2252
aVtmXTLabelDeltaF
p2253
aVtmXTLabelDirection
p2254
aVtmXTLabelFont
p2255
aVtmXTLabelFontAspectF
p2256
aVtmXTLabelFontColor
p2257
aVtmXTLabelFontHeightF
p2258
aVtmXTLabelFontQuality
p2259
aVtmXTLabelFontThicknessF
p2260
aVtmXTLabelFuncCode
p2261
aVtmXTLabelJust
p2262
aVtmXTLabelStride
p2263
aVtmXTLabels
p2264
aVtmXTLabelsOn
p2265
aVtmXTMajorLengthF
p2266
aVtmXTMajorLineColor
p2267
aVtmXTMajorOutwardLengthF
p2268
aVtmXTMajorThicknessF
p2269
aVtmXTMaxLabelLenF
p2270
aVtmXTMaxTicks
p2271
aVtmXTMinLabelSpacingF
p2272
aVtmXTMinorLengthF
p2273
aVtmXTMinorLineColor
p2274
aVtmXTMinorOn
p2275
aVtmXTMinorOutwardLengthF
p2276
aVtmXTMinorPerMajor
p2277
aVtmXTMinorThicknessF
p2278
aVtmXTMinorValues
p2279
aVtmXTMode
p2280
aVtmXTOn
p2281
aVtmXTPrecision
p2282
aVtmXTStyle
p2283
aVtmXTTickEndF
p2284
aVtmXTTickSpacingF
p2285
aVtmXTTickStartF
p2286
aVtmXTValues
p2287
aVtmXUseBottom
p2288
aVtmYLAutoPrecision
p2289
aVtmYLBorderOn
p2290
aVtmYLDataBottomF
p2291
aVtmYLDataTopF
p2292
aVtmYLFormat
p2293
aVtmYLIrrTensionF
p2294
aVtmYLIrregularPoints
p2295
aVtmYLLabelAngleF
p2296
aVtmYLLabelConstantSpacingF
p2297
aVtmYLLabelDeltaF
p2298
aVtmYLLabelDirection
p2299
aVtmYLLabelFont
p2300
aVtmYLLabelFontAspectF
p2301
aVtmYLLabelFontColor
p2302
aVtmYLLabelFontHeightF
p2303
aVtmYLLabelFontQuality
p2304
aVtmYLLabelFontThicknessF
p2305
aVtmYLLabelFuncCode
p2306
aVtmYLLabelJust
p2307
aVtmYLLabelStride
p2308
aVtmYLLabels
p2309
aVtmYLLabelsOn
p2310
aVtmYLMajorLengthF
p2311
aVtmYLMajorLineColor
p2312
aVtmYLMajorOutwardLengthF
p2313
aVtmYLMajorThicknessF
p2314
aVtmYLMaxLabelLenF
p2315
aVtmYLMaxTicks
p2316
aVtmYLMinLabelSpacingF
p2317
aVtmYLMinorLengthF
p2318
aVtmYLMinorLineColor
p2319
aVtmYLMinorOn
p2320
aVtmYLMinorOutwardLengthF
p2321
aVtmYLMinorPerMajor
p2322
aVtmYLMinorThicknessF
p2323
aVtmYLMinorValues
p2324
aVtmYLMode
p2325
aVtmYLOn
p2326
aVtmYLPrecision
p2327
aVtmYLStyle
p2328
aVtmYLTickEndF
p2329
aVtmYLTickSpacingF
p2330
aVtmYLTickStartF
p2331
aVtmYLValues
p2332
aVtmYMajorGrid
p2333
aVtmYMajorGridLineColor
p2334
aVtmYMajorGridLineDashPattern
p2335
aVtmYMajorGridThicknessF
p2336
aVtmYMinorGrid
p2337
aVtmYMinorGridLineColor
p2338
aVtmYMinorGridLineDashPattern
p2339
aVtmYMinorGridThicknessF
p2340
aVtmYRAutoPrecision
p2341
aVtmYRBorderOn
p2342
aVtmYRDataBottomF
p2343
aVtmYRDataTopF
p2344
aVtmYRFormat
p2345
aVtmYRIrrTensionF
p2346
aVtmYRIrregularPoints
p2347
aVtmYRLabelAngleF
p2348
aVtmYRLabelConstantSpacingF
p2349
aVtmYRLabelDeltaF
p2350
aVtmYRLabelDirection
p2351
aVtmYRLabelFont
p2352
aVtmYRLabelFontAspectF
p2353
aVtmYRLabelFontColor
p2354
aVtmYRLabelFontHeightF
p2355
aVtmYRLabelFontQuality
p2356
aVtmYRLabelFontThicknessF
p2357
aVtmYRLabelFuncCode
p2358
aVtmYRLabelJust
p2359
aVtmYRLabelStride
p2360
aVtmYRLabels
p2361
aVtmYRLabelsOn
p2362
aVtmYRMajorLengthF
p2363
aVtmYRMajorLineColor
p2364
aVtmYRMajorOutwardLengthF
p2365
aVtmYRMajorThicknessF
p2366
aVtmYRMaxLabelLenF
p2367
aVtmYRMaxTicks
p2368
aVtmYRMinLabelSpacingF
p2369
aVtmYRMinorLengthF
p2370
aVtmYRMinorLineColor
p2371
aVtmYRMinorOn
p2372
aVtmYRMinorOutwardLengthF
p2373
aVtmYRMinorPerMajor
p2374
aVtmYRMinorThicknessF
p2375
aVtmYRMinorValues
p2376
aVtmYRMode
p2377
aVtmYROn
p2378
aVtmYRPrecision
p2379
aVtmYRStyle
p2380
aVtmYRTickEndF
p2381
aVtmYRTickSpacingF
p2382
aVtmYRTickStartF
p2383
aVtmYRValues
p2384
aVtmYUseLeft
p2385
aVtrGridType
p2386
aVtrLineInterpolationOn
p2387
aVtrXAxisType
p2388
aVtrXCoordPoints
p2389
aVtrXInterPoints
p2390
aVtrXLog
p2391
aVtrXMaxF
p2392
aVtrXMinF
p2393
aVtrXReverse
p2394
aVtrXSamples
p2395
aVtrXTensionF
p2396
aVtrYAxisType
p2397
aVtrYCoordPoints
p2398
aVtrYInterPoints
p2399
aVtrYLog
p2400
aVtrYMaxF
p2401
aVtrYMinF
p2402
aVtrYReverse
p2403
aVtrYSamples
p2404
aVtrYTensionF
p2405
aVtxAngleF
p2406
aVtxBackgroundFillColor
p2407
aVtxConstantSpacingF
p2408
aVtxDirection
p2409
aVtxFont
p2410
aVtxFontAspectF
p2411
aVtxFontColor
p2412
aVtxFontHeightF
p2413
aVtxFontOpacityF
p2414
aVtxFontQuality
p2415
aVtxFontThicknessF
p2416
aVtxFuncCode
p2417
aVtxJust
p2418
aVtxPerimColor
p2419
aVtxPerimDashLengthF
p2420
aVtxPerimDashPattern
p2421
aVtxPerimOn
p2422
aVtxPerimSpaceF
p2423
aVtxPerimThicknessF
p2424
aVtxPosXF
p2425
aVtxPosYF
p2426
aVtxString
p2427
aVvcExplicitLabelBarLabelsOn
p2428
aVvcFillArrowEdgeColor
p2429
aVvcFillArrowEdgeThicknessF
p2430
aVvcFillArrowFillColor
p2431
aVvcFillArrowHeadInteriorXF
p2432
aVvcFillArrowHeadMinFracXF
p2433
aVvcFillArrowHeadMinFracYF
p2434
aVvcFillArrowHeadXF
p2435
aVvcFillArrowHeadYF
p2436
aVvcFillArrowMinFracWidthF
p2437
aVvcFillArrowWidthF
p2438
aVvcFillArrowsOn
p2439
aVvcFillOverEdge
p2440
aVvcGlyphOpacityF
p2441
aVvcGlyphStyle
p2442
aVvcLabelBarEndLabelsOn
p2443
aVvcLabelFontColor
p2444
aVvcLabelFontHeightF
p2445
aVvcLabelsOn
p2446
aVvcLabelsUseVectorColor
p2447
aVvcLevelColors
p2448
aVvcLevelCount
p2449
aVvcLevelPalette
p2450
aVvcLevelSelectionMode
p2451
aVvcLevelSpacingF
p2452
aVvcLevels
p2453
aVvcLineArrowColor
p2454
aVvcLineArrowHeadMaxSizeF
p2455
aVvcLineArrowHeadMinSizeF
p2456
aVvcLineArrowThicknessF
p2457
aVvcMagnitudeFormat
p2458
aVvcMagnitudeScaleFactorF
p2459
aVvcMagnitudeScaleValueF
p2460
aVvcMagnitudeScalingMode
p2461
aVvcMapDirection
p2462
aVvcMaxLevelCount
p2463
aVvcMaxLevelValF
p2464
aVvcMaxMagnitudeF
p2465
aVvcMinAnnoAngleF
p2466
aVvcMinAnnoArrowAngleF
p2467
aVvcMinAnnoArrowEdgeColor
p2468
aVvcMinAnnoArrowFillColor
p2469
aVvcMinAnnoArrowLineColor
p2470
aVvcMinAnnoArrowMinOffsetF
p2471
aVvcMinAnnoArrowSpaceF
p2472
aVvcMinAnnoArrowUseVecColor
p2473
aVvcMinAnnoBackgroundColor
p2474
aVvcMinAnnoConstantSpacingF
p2475
aVvcMinAnnoExplicitMagnitudeF
p2476
aVvcMinAnnoFont
p2477
aVvcMinAnnoFontAspectF
p2478
aVvcMinAnnoFontColor
p2479
aVvcMinAnnoFontHeightF
p2480
aVvcMinAnnoFontQuality
p2481
aVvcMinAnnoFontThicknessF
p2482
aVvcMinAnnoFuncCode
p2483
aVvcMinAnnoJust
p2484
aVvcMinAnnoOn
p2485
aVvcMinAnnoOrientation
p2486
aVvcMinAnnoOrthogonalPosF
p2487
aVvcMinAnnoParallelPosF
p2488
aVvcMinAnnoPerimColor
p2489
aVvcMinAnnoPerimOn
p2490
aVvcMinAnnoPerimSpaceF
p2491
aVvcMinAnnoPerimThicknessF
p2492
aVvcMinAnnoSide
p2493
aVvcMinAnnoString1
p2494
aVvcMinAnnoString1On
p2495
aVvcMinAnnoString2
p2496
aVvcMinAnnoString2On
p2497
aVvcMinAnnoTextDirection
p2498
aVvcMinAnnoZone
p2499
aVvcMinDistanceF
p2500
aVvcMinFracLengthF
p2501
aVvcMinLevelValF
p2502
aVvcMinMagnitudeF
p2503
aVvcMonoFillArrowEdgeColor
p2504
aVvcMonoFillArrowFillColor
p2505
aVvcMonoLineArrowColor
p2506
aVvcMonoWindBarbColor
p2507
aVvcNoDataLabelOn
p2508
aVvcNoDataLabelString
p2509
aVvcPositionMode
p2510
aVvcRefAnnoAngleF
p2511
aVvcRefAnnoArrowAngleF
p2512
aVvcRefAnnoArrowEdgeColor
p2513
aVvcRefAnnoArrowFillColor
p2514
aVvcRefAnnoArrowLineColor
p2515
aVvcRefAnnoArrowMinOffsetF
p2516
aVvcRefAnnoArrowSpaceF
p2517
aVvcRefAnnoArrowUseVecColor
p2518
aVvcRefAnnoBackgroundColor
p2519
aVvcRefAnnoConstantSpacingF
p2520
aVvcRefAnnoExplicitMagnitudeF
p2521
aVvcRefAnnoFont
p2522
aVvcRefAnnoFontAspectF
p2523
aVvcRefAnnoFontColor
p2524
aVvcRefAnnoFontHeightF
p2525
aVvcRefAnnoFontQuality
p2526
aVvcRefAnnoFontThicknessF
p2527
aVvcRefAnnoFuncCode
p2528
aVvcRefAnnoJust
p2529
aVvcRefAnnoOn
p2530
aVvcRefAnnoOrientation
p2531
aVvcRefAnnoOrthogonalPosF
p2532
aVvcRefAnnoParallelPosF
p2533
aVvcRefAnnoPerimColor
p2534
aVvcRefAnnoPerimOn
p2535
aVvcRefAnnoPerimSpaceF
p2536
aVvcRefAnnoPerimThicknessF
p2537
aVvcRefAnnoSide
p2538
aVvcRefAnnoString1
p2539
aVvcRefAnnoString1On
p2540
aVvcRefAnnoString2
p2541
aVvcRefAnnoString2On
p2542
aVvcRefAnnoTextDirection
p2543
aVvcRefAnnoZone
p2544
aVvcRefLengthF
p2545
aVvcRefMagnitudeF
p2546
aVvcScalarFieldData
p2547
aVvcScalarMissingValColor
p2548
aVvcScalarValueFormat
p2549
aVvcScalarValueScaleFactorF
p2550
aVvcScalarValueScaleValueF
p2551
aVvcScalarValueScalingMode
p2552
aVvcSpanLevelPalette
p2553
aVvcUseRefAnnoRes
p2554
aVvcUseScalarArray
p2555
aVvcVectorDrawOrder
p2556
aVvcVectorFieldData
p2557
aVvcWindBarbCalmCircleSizeF
p2558
aVvcWindBarbColor
p2559
aVvcWindBarbLineThicknessF
p2560
aVvcWindBarbScaleFactorF
p2561
aVvcWindBarbTickAngleF
p2562
aVvcWindBarbTickLengthF
p2563
aVvcWindBarbTickSpacingF
p2564
aVvcZeroFLabelAngleF
p2565
aVvcZeroFLabelBackgroundColor
p2566
aVvcZeroFLabelConstantSpacingF
p2567
aVvcZeroFLabelFont
p2568
aVvcZeroFLabelFontAspectF
p2569
aVvcZeroFLabelFontColor
p2570
aVvcZeroFLabelFontHeightF
p2571
aVvcZeroFLabelFontQuality
p2572
aVvcZeroFLabelFontThicknessF
p2573
aVvcZeroFLabelFuncCode
p2574
aVvcZeroFLabelJust
p2575
aVvcZeroFLabelOn
p2576
aVvcZeroFLabelOrthogonalPosF
p2577
aVvcZeroFLabelParallelPosF
p2578
aVvcZeroFLabelPerimColor
p2579
aVvcZeroFLabelPerimOn
p2580
aVvcZeroFLabelPerimSpaceF
p2581
aVvcZeroFLabelPerimThicknessF
p2582
aVvcZeroFLabelSide
p2583
aVvcZeroFLabelString
p2584
aVvcZeroFLabelTextDirection
p2585
aVvcZeroFLabelZone
p2586
aVvfCopyData
p2587
aVvfDataArray
p2588
aVvfExchangeDimensions
p2589
aVvfExchangeUVData
p2590
aVvfMagMaxV
p2591
aVvfMagMinV
p2592
aVvfMissingUValueV
p2593
aVvfMissingVValueV
p2594
aVvfPolarData
p2595
aVvfSingleMissingValue
p2596
aVvfUDataArray
p2597
aVvfUMaxV
p2598
aVvfUMinV
p2599
aVvfVDataArray
p2600
aVvfVMaxV
p2601
aVvfVMinV
p2602
aVvfXArray
p2603
aVvfXCActualEndF
p2604
aVvfXCActualStartF
p2605
aVvfXCEndIndex
p2606
aVvfXCEndSubsetV
p2607
aVvfXCEndV
p2608
aVvfXCStartIndex
p2609
aVvfXCStartSubsetV
p2610
aVvfXCStartV
p2611
aVvfXCStride
p2612
aVvfYArray
p2613
aVvfYCActualEndF
p2614
aVvfYCActualStartF
p2615
aVvfYCEndIndex
p2616
aVvfYCEndSubsetV
p2617
aVvfYCEndV
p2618
aVvfYCStartIndex
p2619
aVvfYCStartSubsetV
p2620
aVvfYCStartV
p2621
aVvfYCStride
p2622
aVvpAnnoManagerId
p2623
aVvpClipOn
p2624
aVvpHeightF
p2625
aVvpKeepAspect
p2626
aVvpOn
p2627
aVvpUseSegments
p2628
aVvpWidthF
p2629
aVvpXF
p2630
aVvpYF
p2631
aVwkBackgroundColor
p2632
aVwkColorMapLen
p2633
aVwkColorMap
p2634
aVwkColorModel
p2635
aVwkColorModel
p2636
aVwkDashTableLength
p2637
aVwkDefGraphicStyleId
p2638
aVwkDeviceLowerX
p2639
aVwkDeviceLowerX
p2640
aVwkDeviceLowerX
p2641
aVwkDeviceLowerY
p2642
aVwkDeviceLowerY
p2643
aVwkDeviceLowerY
p2644
aVwkDeviceUpperX
p2645
aVwkDeviceUpperX
p2646
aVwkDeviceUpperX
p2647
aVwkDeviceUpperY
p2648
aVwkDeviceUpperY
p2649
aVwkDeviceUpperY
p2650
aVwkFileName
p2651
aVwkFileName
p2652
aVwkFillTableLength
p2653
aVwkForegroundColor
p2654
aVwkFormat
p2655
aVwkFormat
p2656
aVwkFullBackground
p2657
aVwkFullBackground
p2658
aVwkGksWorkId
p2659
aVwkHeight
p2660
aVwkHeight
p2661
aVwkMarkerTableLength
p2662
aVwkMetaName
p2663
aVwkOrientation
p2664
aVwkOrientation
p2665
aVwkPDFFileName
p2666
aVwkPDFFormat
p2667
aVwkPDFResolution
p2668
aVwkPDFResolution
p2669
aVwkPSFileName
p2670
aVwkPSFormat
p2671
aVwkPSResolution
p2672
aVwkPaperHeightF
p2673
aVwkPaperHeightF
p2674
aVwkPaperHeightF
p2675
aVwkPaperSize
p2676
aVwkPaperSize
p2677
aVwkPaperSize
p2678
aVwkPaperWidthF
p2679
aVwkPaperWidthF
p2680
aVwkPaperWidthF
p2681
aVwkPause
p2682
aVwkTopLevelViews
p2683
aVwkViews
p2684
aVwkVisualType
p2685
aVwkVisualType
p2686
aVwkWidth
p2687
aVwkWidth
p2688
aVwkWindowId
p2689
aVwkXColorMode
p2690
aVwsCurrentSize
p2691
aVwsMaximumSize
p2692
aVwsThresholdSize
p2693
aVxyComputeXMax
p2694
aVxyComputeXMin
p2695
aVxyComputeYMax
p2696
aVxyComputeYMin
p2697
aVxyCoordData
p2698
aVxyCoordDataSpec
p2699
aVxyCurveDrawOrder
p2700
aVxyDashPattern
p2701
aVxyDashPatterns
p2702
aVxyExplicitLabels
p2703
aVxyExplicitLegendLabels
p2704
aVxyLabelMode
p2705
aVxyLineColor
p2706
aVxyLineColors
p2707
aVxyLineDashSegLenF
p2708
aVxyLineLabelConstantSpacingF
p2709
aVxyLineLabelFont
p2710
aVxyLineLabelFontAspectF
p2711
aVxyLineLabelFontColor
p2712
aVxyLineLabelFontColors
p2713
aVxyLineLabelFontHeightF
p2714
aVxyLineLabelFontQuality
p2715
aVxyLineLabelFontThicknessF
p2716
aVxyLineLabelFuncCode
p2717
aVxyLineThicknessF
p2718
aVxyLineThicknesses
p2719
aVxyMarkLineMode
p2720
aVxyMarkLineModes
p2721
aVxyMarker
p2722
aVxyMarkerColor
p2723
aVxyMarkerColors
p2724
aVxyMarkerSizeF
p2725
aVxyMarkerSizes
p2726
aVxyMarkerThicknessF
p2727
aVxyMarkerThicknesses
p2728
aVxyMarkers
p2729
aVxyMonoDashPattern
p2730
aVxyMonoLineColor
p2731
aVxyMonoLineLabelFontColor
p2732
aVxyMonoLineThickness
p2733
aVxyMonoMarkLineMode
p2734
aVxyMonoMarker
p2735
aVxyMonoMarkerColor
p2736
aVxyMonoMarkerSize
p2737
aVxyMonoMarkerThickness
p2738
aVxyXIrrTensionF
p2739
aVxyXIrregularPoints
p2740
aVxyXStyle
p2741
aVxyYIrrTensionF
p2742
aVxyYIrregularPoints
p2743
aVxyYStyle
p2744
aasS'gsn'
p2745
(lp2746
S'ncl_key_gsn'
p2747
aS'Ncl gsn csm plot templates and special gsn functions.'
p2748
aS'http://www.ncl.ucar.edu//Document/Graphics/Interfaces/'
p2749
a(lp2750
Vgsn_define_colormap
p2751
aVgsn_draw_colormap
p2752
aVgsn_draw_named_colors
p2753
aVgsn_merge_colormaps
p2754
aVgsn_retrieve_colormap
p2755
aVgsn_reverse_colormap
p2756
aVnamedcolor2rgb
p2757
aVspan_named_colors
p2758
aVread_colormap_file
p2759
aVgsn_contour
p2760
aVgsn_contour_map
p2761
aVgsn_csm_contour
p2762
aVgsn_csm_hov
p2763
aVgsn_csm_time_lat
p2764
aVgsn_csm_lat_time
p2765
aVgsn_csm_pres_hgt
p2766
aVgsn_csm_contour_map
p2767
aVgsn_csm_contour_map_ce
p2768
aVgsn_csm_contour_map_polar
p2769
aVgsn_csm_contour_map_overlay
p2770
aVgsn_contour_shade
p2771
aVgsn_map
p2772
aVgsn_csm_map
p2773
aVgsn_csm_map_ce
p2774
aVgsn_csm_map_polar
p2775
aVgsn_polygon
p2776
aVgsn_add_polygon
p2777
aVgsn_polygon_ndc
p2778
aVgsn_polyline
p2779
aVgsn_add_polyline
p2780
aVgsn_polyline_ndc
p2781
aVgsn_polymarker
p2782
aVgsn_add_polymarker
p2783
aVgsn_polymarker_ndc
p2784
aVgsn_text
p2785
aVgsn_add_text
p2786
aVgsn_text_ndc
p2787
aVgsn_create_text
p2788
aVgsn_coordinates
p2789
aVgsn_add_shapefile_polygons
p2790
aVgsn_add_shapefile_polylines
p2791
aVgsn_add_shapefile_polymarkers
p2792
aVgsn_add_annotation
p2793
aVgsn_attach_plots
p2794
aVgsn_blank_plot
p2795
aVgsn_csm_blank_plot
p2796
aVgsn_create_labelbar
p2797
aVgsn_create_legend
p2798
aVgsn_create_text
p2799
aVgsn_histogram
p2800
aVgsn_labelbar_ndc
p2801
aVgsn_legend_ndc
p2802
aVgsn_open_wks
p2803
aVgsn_panel
p2804
aVgsn_table
p2805
aVreset_device_coordinates
p2806
aVgsn_streamline
p2807
aVgsn_streamline_map
p2808
aVgsn_streamline_scalar
p2809
aVgsn_streamline_scalar_map
p2810
aVgsn_csm_streamline
p2811
aVgsn_csm_streamline_map
p2812
aVgsn_csm_streamline_map_ce
p2813
aVgsn_csm_streamline_map_polar
p2814
aVgsn_csm_streamline_contour_map
p2815
aVgsn_csm_streamline_contour_map_ce
p2816
aVgsn_csm_streamline_contour_map_polar
p2817
aVgsn_csm_pres_hgt_streamline
p2818
aVgsn_vector
p2819
aVgsn_vector_map
p2820
aVgsn_vector_scalar
p2821
aVgsn_vector_scalar_map
p2822
aVgsn_csm_vector
p2823
aVgsn_csm_vector_map
p2824
aVgsn_csm_vector_map_ce
p2825
aVgsn_csm_vector_map_polar
p2826
aVgsn_csm_vector_scalar
p2827
aVgsn_csm_vector_scalar_map
p2828
aVgsn_csm_vector_scalar_map_ce
p2829
aVgsn_csm_vector_scalar_map_polar
p2830
aVgsn_csm_pres_hgt_vector
p2831
aVgsn_xy
p2832
aVgsn_y
p2833
aVgsn_csm_xy
p2834
aVgsn_csm_y
p2835
aVgsn_csm_xy2
p2836
aVgsn_csm_x2y
p2837
aVgsn_csm_x2y2
p2838
aVgsn_csm_xy3
p2839
aas.