(dp0
S'wrfcontrib'
p1
(lp2
S'ncl_key_wrfcontrib'
p3
aS'Ncl wrf_contributed functions.'
p4
aS'http://www.ncl.ucar.edu//Document/Functions/WRF_contributed/'
p5
a(lp6
Vwrf_mapres_c
p7
aVwrf_times_c
p8
aasS'shea'
p9
(lp10
S'ncl_key_shea'
p11
aS'Ncl shea_util functions.'
p12
aS'http://www.ncl.ucar.edu//Document/Functions/Shea_util/'
p13
a(lp14
Vadd90LatX
p15
aVadd90LatY
p16
aVboxplot
p17
aVColorNegDashZeroPosContour
p18
aVColorShadeLeGeContour
p19
aVdrawNDCGrid
p20
aVinfoTimeStamp
p21
aVlandsea_mask
p22
aVmsgValOutline
p23
aVpie_chart
p24
aVplt_pdfxy
p25
aVsetColorContourClear
p26
aVShadeCOI
p27
aVShadeGeLeContour
p28
aVShadeGtContour
p29
aVShadeLtContour
p30
aVShadeLtGtContour
p31
aVspecx_ci
p32
aasS'diag'
p33
(lp34
S'ncl_key_diag'
p35
aS'Ncl diagnostics functions.'
p36
aS'http://www.ncl.ucar.edu//Document/Functions/Diagnostics/'
p37
a(lp38
Vband_pass_area_time
p39
aVband_pass_area_time_plot
p40
aVband_pass_hovmueller
p41
aVband_pass_hovmueller_plot
p42
aVband_pass_latlon_time
p43
aVband_pass_latlon_time_plot
p44
aVdecomposeSymAsym
p45
aVmjo_cross
p46
aVmjo_cross_plot
p47
aVmjo_phase_background
p48
aVmjo_space_time_cross
p49
aVmjo_spectra
p50
aVmjo_spectra_season
p51
aVmjo_wavenum_freq_season
p52
aVmjo_wavenum_freq_season_plot
p53
aVmjo_xcor_lag_ovly
p54
aVmjo_xcor_lag_ovly_panel
p55
aVmjo_xcor_lag_season
p56
aVresolveWavesHayashi
p57
aVwkSpaceTime
p58
aVwkSpaceTime_cam
p59
aasS'operators'
p60
(lp61
S'ncl_key_operators'
p62
aS'Operators in NCL.'
p63
aS'No specific url.'
p64
a(lp65
S'(/'
p66
aS'/)'
p67
aS'\\\\'
p68
aS'.eq.'
p69
aS'.ne.'
p70
aS'.lt.'
p71
aS'.le.'
p72
aS'.gt.'
p73
aS'.ge.'
p74
aS'.and.'
p75
aS'.or.'
p76
aS'.not.'
p77
aS'.xor.'
p78
aasS'windrose'
p79
(lp80
S'ncl_key_windrose'
p81
aS'Ncl wind_rose functions.'
p82
aS'http://www.ncl.ucar.edu//Document/Functions/Wind_rose/'
p83
a(lp84
VWindRoseBasic
p85
aVWindRoseColor
p86
aVWindRoseThickLine
p87
aasS'pop'
p88
(lp89
S'ncl_key_pop'
p90
aS'Ncl pop_remap functions.'
p91
aS'http://www.ncl.ucar.edu//Document/Functions/Pop_remap/'
p92
a(lp93
VPopLatLon
p94
aVPopLatLonV
p95
aasS'wrfarw'
p96
(lp97
S'ncl_key_wrfarw'
p98
aS'Ncl wrf_arw functions.'
p99
aS'http://www.ncl.ucar.edu//Document/Functions/WRF_arw/'
p100
a(lp101
Vwrf_contour
p102
aVwrf_map
p103
aVwrf_map_overlay
p104
aVwrf_map_overlays
p105
aVwrf_map_resources
p106
aVwrf_map_zoom
p107
aVwrf_overlay
p108
aVwrf_overlays
p109
aVwrf_user_getvar
p110
aVwrf_user_ij_to_ll
p111
aVwrf_user_intrp2d
p112
aVwrf_user_intrp3d
p113
aVwrf_user_latlon_to_ij
p114
aVwrf_user_list_times
p115
aVwrf_user_ll_to_ij
p116
aVwrf_user_unstagger
p117
aVwrf_user_vert_interp
p118
aVwrf_vector
p119
aasS'contrib'
p120
(lp121
S'ncl_key_contrib'
p122
aS'Ncl contributed functions.'
p123
aS'http://www.ncl.ucar.edu//Document/Functions/Contributed/'
p124
a(lp125
Vaddfiles_GetVar
p126
aVadvect_variable
p127
aValbedo_ccm
p128
aVarea_conserve_remap_Wrap
p129
aVarea_hi2lores_Wrap
p130
aVarray_append_record
p131
aVassignFillValue
p132
aVbrunt_vaisala
p133
aVbrunt_vaisala_atm
p134
aVbyte2flt
p135
aVbyte2flt_hdf
p136
aVcalcDayAnomTLL
p137
aVcalcMonAnomLLLT
p138
aVcalcMonAnomLLT
p139
aVcalcMonAnomTLL
p140
aVcalcMonAnomTLLL
p141
aVcalculate_daily_values
p142
aVcalculate_monthly_values
p143
aVcalculate_segment_values
p144
aVcd_convert
p145
aVchangeCase
p146
aVchangeCaseChar
p147
aVclmDayTLL
p148
aVclmDayTLLL
p149
aVclmMon2clmDay
p150
aVclmMonLLLT
p151
aVclmMonLLT
p152
aVclmMonTLL
p153
aVclmMonTLLL
p154
aVclosest_val
p155
aVcohsq_c2p
p156
aVcohsq_p2c
p157
aVcopy_VarAtts
p158
aVcopy_VarCoords
p159
aVcopy_VarCoords_1
p160
aVcopy_VarCoords_2
p161
aVcopy_VarMeta
p162
aVcopyatt
p163
aVcoriolis_param
p164
aVcrossp3
p165
aVcshstringtolist
p166
aVcssgrid_Wrap
p167
aVdble2flt
p168
aVdecimalPlaces
p169
aVdelete_VarAtts
p170
aVdemod_cmplx
p171
aVdim_avg_n_Wrap
p172
aVdim_avg_wgt_n_Wrap
p173
aVdim_avg_wgt_Wrap
p174
aVdim_avg_Wrap
p175
aVdim_cumsum_n_Wrap
p176
aVdim_cumsum_Wrap
p177
aVdim_max_n_Wrap
p178
aVdim_maxind
p179
aVdim_min_n_Wrap
p180
aVdim_minind
p181
aVdim_rmsd_n_Wrap
p182
aVdim_rmsd_Wrap
p183
aVdim_rmvmean_n_Wrap
p184
aVdim_rmvmean_Wrap
p185
aVdim_rmvmed_n_Wrap
p186
aVdim_rmvmed_Wrap
p187
aVdim_standardize_n_Wrap
p188
aVdim_standardize_Wrap
p189
aVdim_stddev_n_Wrap
p190
aVdim_stddev_Wrap
p191
aVdim_sum_n_Wrap
p192
aVdim_sum_wgt_n_Wrap
p193
aVdim_sum_wgt_Wrap
p194
aVdim_sum_Wrap
p195
aVdim_variance_n_Wrap
p196
aVdim_variance_Wrap
p197
aVdpres_plevel_Wrap
p198
aVdtrend_leftdim
p199
aVdv2uvF_Wrap
p200
aVdv2uvG_Wrap
p201
aVeady_growth_rate
p202
aVeofcor_Wrap
p203
aVeofcov_Wrap
p204
aVeofunc_n_Wrap
p205
aVeofunc_north
p206
aVeofunc_ts_n_Wrap
p207
aVeofunc_ts_Wrap
p208
aVeofunc_varimax_reorder
p209
aVeofunc_varimax_Wrap
p210
aVeofunc_Wrap
p211
aVepflux
p212
aVepsZero
p213
aVextract_globalatts_hdf5
p214
aVf2fosh_Wrap
p215
aVf2foshv_Wrap
p216
aVf2fsh_Wrap
p217
aVf2fshv_Wrap
p218
aVf2gsh_Wrap
p219
aVf2gshv_Wrap
p220
aVfbindirSwap
p221
aVfbinseqSwap1
p222
aVfbinseqSwap2
p223
aVfire_index_haines
p224
aVflt2dble
p225
aVflt2string
p226
aVfo2fsh_Wrap
p227
aVfo2fshv_Wrap
p228
aVg2fsh_Wrap
p229
aVg2fshv_Wrap
p230
aVg2gsh_Wrap
p231
aVg2gshv_Wrap
p232
aVgenerate_sample_indices
p233
aVgenerate_unique_indices
p234
aVgenNormalDist
p235
aVget1Dindex_Collapse
p236
aVget1Dindex_Exclude
p237
aVget_d2r
p238
aVget_file_suffix
p239
aVget_pi
p240
aVget_r2d
p241
aVget_unique_difference
p242
aVget_unique_intersection
p243
aVget_unique_union
p244
aVGetFillColor
p245
aVGetFillColorIndex
p246
aVgetFillValue
p247
aVgetind_latlon2d
p248
aVgetVarDimNames
p249
aVgetVarFillValue
p250
aVgrad_latlon_cfd
p251
aVgrib_stime2itime
p252
aVhyi2hyo_Wrap
p253
aVilapsF_Wrap
p254
aVilapsG_Wrap
p255
aVind_nearest_coord
p256
aVindStrSubset
p257
aVint2dble
p258
aVint2flt
p259
aVint2p_n_Wrap
p260
aVint2p_Wrap
p261
aVisMonotonic
p262
aVisStrSubset
p263
aVlatent_heat_water
p264
aVlatGau
p265
aVlatGauWgt
p266
aVlatGlobeF
p267
aVlatGlobeFo
p268
aVlatRegWgt
p269
aVlinint1_n_Wrap
p270
aVlinint1_Wrap
p271
aVlinint2_points_Wrap
p272
aVlinint2_Wrap
p273
aVlocal_max_1d
p274
aVlocal_min_1d
p275
aVlonFlip
p276
aVlonGlobeF
p277
aVlonGlobeFo
p278
aVlonPivot
p279
aVmerge_levels_sfc
p280
aVmod
p281
aVmonth_to_annual
p282
aVmonth_to_annual_weighted
p283
aVmonth_to_season
p284
aVmonth_to_season12
p285
aVmonth_to_seasonN
p286
aVmonthly_total_to_daily_mean
p287
aVnameDim
p288
aVnatgrid_Wrap
p289
aVNewCosWeight
p290
aVniceLatLon2D
p291
aVNormCosWgtGlobe
p292
aVnumAsciiCol
p293
aVnumAsciiRow
p294
aVnumeric2int
p295
aVobj_anal_ic_deprecated
p296
aVobj_anal_ic_Wrap
p297
aVomega_ccm_driver
p298
aVomega_to_w
p299
aVoneDtostring
p300
aVpack_values
p301
aVparse_globalatts_hdf5
p302
aVpattern_cor
p303
aVpdfx
p304
aVpdfxy
p305
aVpdfxy_conform
p306
aVpot_temp
p307
aVpot_vort_hybrid
p308
aVpot_vort_isobaric
p309
aVpres2hybrid_Wrap
p310
aVprint_clock
p311
aVprintMinMax
p312
aVquadroots
p313
aVrcm2points_Wrap
p314
aVrcm2rgrid_Wrap
p315
aVreadAsciiHead
p316
aVreadAsciiTable
p317
aVreg_multlin_stats
p318
aVregion_ind
p319
aVregline_stats
p320
aVrelhum_ttd
p321
aVreplaceSingleChar
p322
aVRGBtoCmap
p323
aVrgrid2rcm_Wrap
p324
aVrho_mwjf
p325
aVrigrad_bruntv_atm
p326
aVrm_single_dims
p327
aVrmAnnCycle1D
p328
aVrmInsufData
p329
aVrmMonAnnCycLLLT
p330
aVrmMonAnnCycLLT
p331
aVrmMonAnnCycTLL
p332
aVrunave_n_Wrap
p333
aVrunave_Wrap
p334
aVsatvpr_water_bolton
p335
aVsatvpr_water_stipanuk
p336
aVshort2flt
p337
aVshort2flt_hdf
p338
aVshsgc_R42_Wrap
p339
aVsign_f90
p340
aVsign_matlab
p341
aVsmth9_Wrap
p342
aVsmthClmDayTLL
p343
aVsmthClmDayTLLL
p344
aVSqrtCosWeight
p345
aVstat_dispersion
p346
aVstatic_stability
p347
aVstdMonLLLT
p348
aVstdMonLLT
p349
aVstdMonTLL
p350
aVstdMonTLLL
p351
aVsymMinMaxPlt
p352
aVtable_attach_columns
p353
aVtable_attach_rows
p354
aVtime_reassign
p355
aVtime_reassign_cv2var
p356
aVtime_to_newtime
p357
aVtranspose
p358
aVtriple2grid_Wrap
p359
aVut_convert
p360
aVuv2dvF_Wrap
p361
aVuv2dvG_Wrap
p362
aVuv2vrF_Wrap
p363
aVuv2vrG_Wrap
p364
aVvapor_pres_rh
p365
aVvr2uvF_Wrap
p366
aVvr2uvG_Wrap
p367
aVw_to_omega
p368
aVwallClockElapseTime
p369
aVwave_number_spc
p370
aVwetbulb_stull
p371
aVwgt_areaave_Wrap
p372
aVwgt_runave_leftdim
p373
aVwgt_runave_n_Wrap
p374
aVwgt_runave_Wrap
p375
aVwgt_vertical_n
p376
aVwind_component
p377
aVwind_direction
p378
aVwind_speed
p379
aVwind_stats
p380
aVyyyyddd_to_yyyymmdd
p381
aVyyyymm_time
p382
aVyyyymm_to_yyyyfrac
p383
aVyyyymmdd_time
p384
aVyyyymmdd_to_yyyyddd
p385
aVyyyymmdd_to_yyyyfrac
p386
aVyyyymmddhh_time
p387
aVyyyymmddhh_to_yyyyfrac
p388
aVzonal_mpsi_Wrap
p389
aVzonalAve
p390
aasS'builtin'
p391
(lp392
S'ncl_key_builtin'
p393
aS'Ncl built-in functions.'
p394
aS'http://www.ncl.ucar.edu//Document/Functions/Built-in/'
p395
a(lp396
Vabs
p397
aVacos
p398
aVaddfile
p399
aVaddfiles
p400
aVall
p401
aVangmom_atm
p402
aVany
p403
aVarea_conserve_remap
p404
aVarea_hi2lores
p405
aVarea_poly_sphere
p406
aVasciiread
p407
aVasciiwrite
p408
aVasin
p409
aVatan
p410
aVatan2
p411
aVattsetvalues
p412
aVavg
p413
aVbetainc
p414
aVbin_avg
p415
aVbin_sum
p416
aVbw_bandpass_filter
p417
aVcancor
p418
aVcbinread
p419
aVcbinwrite
p420
aVcd_calendar
p421
aVcd_inv_calendar
p422
aVcdfbin_p
p423
aVcdfbin_pr
p424
aVcdfbin_s
p425
aVcdfbin_xn
p426
aVcdfchi_p
p427
aVcdfchi_x
p428
aVcdfgam_p
p429
aVcdfgam_x
p430
aVcdfnor_p
p431
aVcdfnor_x
p432
aVcdft_p
p433
aVcdft_t
p434
aVceil
p435
aVcenter_finite_diff
p436
aVcenter_finite_diff_n
p437
aVcfftb
p438
aVcfftf
p439
aVcfftf_frq_reorder
p440
aVcharactertodouble
p441
aVcharactertofloat
p442
aVcharactertointeger
p443
aVcharactertolong
p444
aVcharactertoshort
p445
aVcharactertostring
p446
aVchartodouble
p447
aVchartofloat
p448
aVchartoint
p449
aVchartointeger
p450
aVchartolong
p451
aVchartoshort
p452
aVchartostring
p453
aVchiinv
p454
aVcla_sq
p455
aVclear
p456
aVcolor_index_to_rgba
p457
aVconform
p458
aVconform_dims
p459
aVcos
p460
aVcosh
p461
aVcount_unique_values
p462
aVcount_unique_values_n
p463
aVcovcorm
p464
aVcovcorm_xy
p465
aVcraybinnumrec
p466
aVcraybinrecread
p467
aVcreate_graphic
p468
aVcsa1
p469
aVcsa1d
p470
aVcsa1s
p471
aVcsa1x
p472
aVcsa1xd
p473
aVcsa1xs
p474
aVcsa2
p475
aVcsa2d
p476
aVcsa2l
p477
aVcsa2ld
p478
aVcsa2ls
p479
aVcsa2lx
p480
aVcsa2lxd
p481
aVcsa2lxs
p482
aVcsa2s
p483
aVcsa2x
p484
aVcsa2xd
p485
aVcsa2xs
p486
aVcsa3
p487
aVcsa3d
p488
aVcsa3l
p489
aVcsa3ld
p490
aVcsa3ls
p491
aVcsa3lx
p492
aVcsa3lxd
p493
aVcsa3lxs
p494
aVcsa3s
p495
aVcsa3x
p496
aVcsa3xd
p497
aVcsa3xs
p498
aVcsc2s
p499
aVcsgetp
p500
aVcss2c
p501
aVcssetp
p502
aVcssgrid
p503
aVcsstri
p504
aVcsvoro
p505
aVcumsum
p506
aVcz2ccm
p507
aVdatatondc
p508
aVday_of_week
p509
aVday_of_year
p510
aVdays_in_month
p511
aVdefault_fillvalue
p512
aVdelete
p513
aVdepth_to_pres
p514
aVdestroy
p515
aVdeterminant
p516
aVdewtemp_trh
p517
aVdgeevx_lapack
p518
aVdim_acumrun_n
p519
aVdim_avg
p520
aVdim_avg_n
p521
aVdim_avg_wgt
p522
aVdim_avg_wgt_n
p523
aVdim_cumsum
p524
aVdim_cumsum_n
p525
aVdim_gamfit_n
p526
aVdim_gbits
p527
aVdim_max
p528
aVdim_max_n
p529
aVdim_median
p530
aVdim_median_n
p531
aVdim_min
p532
aVdim_min_n
p533
aVdim_num
p534
aVdim_num_n
p535
aVdim_numrun_n
p536
aVdim_pqsort
p537
aVdim_pqsort_n
p538
aVdim_product
p539
aVdim_product_n
p540
aVdim_rmsd
p541
aVdim_rmsd_n
p542
aVdim_rmvmean
p543
aVdim_rmvmean_n
p544
aVdim_rmvmed
p545
aVdim_rmvmed_n
p546
aVdim_spi_n
p547
aVdim_standardize
p548
aVdim_standardize_n
p549
aVdim_stat4
p550
aVdim_stat4_n
p551
aVdim_stddev
p552
aVdim_stddev_n
p553
aVdim_sum
p554
aVdim_sum_n
p555
aVdim_sum_wgt
p556
aVdim_sum_wgt_n
p557
aVdim_variance
p558
aVdim_variance_n
p559
aVdimsizes
p560
aVdoubletobyte
p561
aVdoubletochar
p562
aVdoubletocharacter
p563
aVdoubletofloat
p564
aVdoubletoint
p565
aVdoubletointeger
p566
aVdoubletolong
p567
aVdoubletoshort
p568
aVdpres_hybrid_ccm
p569
aVdpres_plevel
p570
aVdraw
p571
aVdraw_color_palette
p572
aVdsgetp
p573
aVdsgrid2
p574
aVdsgrid2d
p575
aVdsgrid2s
p576
aVdsgrid3
p577
aVdsgrid3d
p578
aVdsgrid3s
p579
aVdspnt2
p580
aVdspnt2d
p581
aVdspnt2s
p582
aVdspnt3
p583
aVdspnt3d
p584
aVdspnt3s
p585
aVdssetp
p586
aVdtrend
p587
aVdtrend_msg
p588
aVdtrend_msg_n
p589
aVdtrend_n
p590
aVdtrend_quadratic
p591
aVdtrend_quadratic_msg_n
p592
aVdv2uvF
p593
aVdv2uvf
p594
aVdv2uvG
p595
aVdv2uvg
p596
aVdz_height
p597
aVecho_off
p598
aVecho_on
p599
aVeof2data
p600
aVeof2data_n
p601
aVeof_varimax
p602
aVeofcor
p603
aVeofcor_pcmsg
p604
aVeofcor_ts
p605
aVeofcov
p606
aVeofcov_pcmsg
p607
aVeofcov_ts
p608
aVeofunc
p609
aVeofunc_n
p610
aVeofunc_ts
p611
aVeofunc_ts_n
p612
aVeofunc_varimax
p613
aVequiv_sample_size
p614
aVerf
p615
aVerfc
p616
aVesacr
p617
aVesacv
p618
aVesccr
p619
aVesccv
p620
aVescorc
p621
aVescorc_n
p622
aVescovc
p623
aVexit
p624
aVexp
p625
aVexp_tapersh
p626
aVexp_tapersh_wgts
p627
aVexp_tapershC
p628
aVextval_mlegev
p629
aVezfftb
p630
aVezfftb_n
p631
aVezfftf
p632
aVezfftf_n
p633
aVf2fosh
p634
aVf2foshv
p635
aVf2fsh
p636
aVf2fshv
p637
aVf2gsh
p638
aVf2gshv
p639
aVfabs
p640
aVfbindirread
p641
aVfbindirwrite
p642
aVfbinnumrec
p643
aVfbinread
p644
aVfbinrecread
p645
aVfbinrecwrite
p646
aVfbinwrite
p647
aVfft2db
p648
aVfft2df
p649
aVfftshift
p650
aVfileattdef
p651
aVfilechunkdimdef
p652
aVfiledimdef
p653
aVfileexists
p654
aVfilegrpdef
p655
aVfilevarattdef
p656
aVfilevarchunkdef
p657
aVfilevarcompressleveldef
p658
aVfilevardef
p659
aVfilevardimsizes
p660
aVfilwgts_lancos
p661
aVfilwgts_lanczos
p662
aVfilwgts_normal
p663
aVfloattobyte
p664
aVfloattochar
p665
aVfloattocharacter
p666
aVfloattoint
p667
aVfloattointeger
p668
aVfloattolong
p669
aVfloattoshort
p670
aVfloor
p671
aVfluxEddy
p672
aVfo2fsh
p673
aVfo2fshv
p674
aVfourier_info
p675
aVframe
p676
aVfspan
p677
aVftcurv
p678
aVftcurvd
p679
aVftcurvi
p680
aVftcurvp
p681
aVftcurvpi
p682
aVftcurvps
p683
aVftcurvs
p684
aVftest
p685
aVftgetp
p686
aVftkurv
p687
aVftkurvd
p688
aVftkurvp
p689
aVftkurvpd
p690
aVftsetp
p691
aVftsurf
p692
aVg2fsh
p693
aVg2fshv
p694
aVg2gsh
p695
aVg2gshv
p696
aVgamma
p697
aVgammainc
p698
aVgaus
p699
aVgaus_lobat
p700
aVgaus_lobat_wgt
p701
aVgc_aangle
p702
aVgc_clkwise
p703
aVgc_dangle
p704
aVgc_inout
p705
aVgc_latlon
p706
aVgc_onarc
p707
aVgc_pnt2gc
p708
aVgc_qarea
p709
aVgc_tarea
p710
aVgenerate_2d_array
p711
aVget_color_rgba
p712
aVget_cpu_time
p713
aVget_isolines
p714
aVget_ncl_version
p715
aVget_script_name
p716
aVget_script_prefix_name
p717
aVget_sphere_radius
p718
aVget_unique_values
p719
aVgetbitsone
p720
aVgetenv
p721
aVgetfiledimsizes
p722
aVgetfilegrpnames
p723
aVgetfilepath
p724
aVgetfilevaratts
p725
aVgetfilevarchunkdimsizes
p726
aVgetfilevardims
p727
aVgetfilevardimsizes
p728
aVgetfilevarnames
p729
aVgetfilevartypes
p730
aVgetvaratts
p731
aVgetvardims
p732
aVgradsf
p733
aVgradsg
p734
aVgreg2jul
p735
aVgrid2triple
p736
aVhlsrgb
p737
aVhsvrgb
p738
aVhydro
p739
aVhyi2hyo
p740
aVidsfft
p741
aVigradsf
p742
aVigradsF
p743
aVigradsg
p744
aVigradsG
p745
aVilapsf
p746
aVilapsF
p747
aVilapsg
p748
aVilapsG
p749
aVilapvf
p750
aVilapvg
p751
aVind
p752
aVind_resolve
p753
aVint2p
p754
aVint2p_n
p755
aVintegertobyte
p756
aVintegertochar
p757
aVintegertocharacter
p758
aVintegertoshort
p759
aVinttobyte
p760
aVinttochar
p761
aVinttoshort
p762
aVinverse_matrix
p763
aVis_string_numeric
p764
aVisatt
p765
aVisbigendian
p766
aVisbyte
p767
aVischar
p768
aViscoord
p769
aVisdefined
p770
aVisdim
p771
aVisdimnamed
p772
aVisdouble
p773
aVisenumeric
p774
aVisfile
p775
aVisfilepresent
p776
aVisfilevar
p777
aVisfilevaratt
p778
aVisfilevarcoord
p779
aVisfilevardim
p780
aVisfloat
p781
aVisfunc
p782
aVisgraphic
p783
aVisint
p784
aVisint64
p785
aVisinteger
p786
aVisleapyear
p787
aVislogical
p788
aVislong
p789
aVismissing
p790
aVisnan_ieee
p791
aVisnumeric
p792
aVispan
p793
aVisproc
p794
aVisscalar
p795
aVisshort
p796
aVissnumeric
p797
aVisstring
p798
aVisubyte
p799
aVisuint
p800
aVisuint64
p801
aVisulong
p802
aVisunlimited
p803
aVisunsigned
p804
aVisushort
p805
aVisvar
p806
aVjul2greg
p807
aVkmeans_as136
p808
aVkolsm2_n
p809
aVkron_product
p810
aVlapsF
p811
aVlapsf
p812
aVlapsG
p813
aVlapsg
p814
aVlapvf
p815
aVlapvg
p816
aVlatlon2utm
p817
aVlclvl
p818
aVlderuvf
p819
aVlderuvg
p820
aVlinint1
p821
aVlinint1_n
p822
aVlinint2
p823
aVlinint2_points
p824
aVlinmsg
p825
aVlinmsg_n
p826
aVlinrood_latwgt
p827
aVlinrood_wgt
p828
aVlist_files
p829
aVlist_filevars
p830
aVlist_hlus
p831
aVlist_procfuncs
p832
aVlist_vars
p833
aVListAppend
p834
aVListCount
p835
aVListGetType
p836
aVListIndex
p837
aVListIndexFromName
p838
aVListPop
p839
aVListPush
p840
aVListSetType
p841
aVloadscript
p842
aVlocal_max
p843
aVlocal_min
p844
aVlog
p845
aVlog10
p846
aVlongtobyte
p847
aVlongtochar
p848
aVlongtocharacter
p849
aVlongtoint
p850
aVlongtointeger
p851
aVlongtoshort
p852
aVlspoly
p853
aVlspoly_n
p854
aVmask
p855
aVmax
p856
aVmaxind
p857
aVmin
p858
aVminind
p859
aVmixed_layer_depth
p860
aVmixhum_ptd
p861
aVmixhum_ptrh
p862
aVmjo_cross_coh2pha
p863
aVmjo_cross_segment
p864
aVmoc_globe_atl
p865
aVmonthday
p866
aVnamedcolor2rgb
p867
aVnamedcolor2rgba
p868
aVnatgrid
p869
aVnatgridd
p870
aVnatgrids
p871
aVncargpath
p872
aVncargversion
p873
aVndctodata
p874
aVndtooned
p875
aVnew
p876
aVNewList
p877
aVngezlogo
p878
aVnggcog
p879
aVnggetp
p880
aVnglogo
p881
aVngsetp
p882
aVNhlAddAnnotation
p883
aVNhlAddData
p884
aVNhlAddOverlay
p885
aVNhlAddPrimitive
p886
aVNhlAppGetDefaultParentId
p887
aVNhlChangeWorkstation
p888
aVNhlClassName
p889
aVNhlClearWorkstation
p890
aVNhlDataPolygon
p891
aVNhlDataPolyline
p892
aVNhlDataPolymarker
p893
aVNhlDataToNDC
p894
aVNhlDestroy
p895
aVNhlDraw
p896
aVNhlFrame
p897
aVNhlFreeColor
p898
aVNhlGetBB
p899
aVNhlGetClassResources
p900
aVNhlGetErrorObjectId
p901
aVNhlGetNamedColorIndex
p902
aVNhlGetParentId
p903
aVNhlGetParentWorkstation
p904
aVNhlGetWorkspaceObjectId
p905
aVNhlIsAllocatedColor
p906
aVNhlIsApp
p907
aVNhlIsDataComm
p908
aVNhlIsDataItem
p909
aVNhlIsDataSpec
p910
aVNhlIsTransform
p911
aVNhlIsView
p912
aVNhlIsWorkstation
p913
aVNhlName
p914
aVNhlNDCPolygon
p915
aVNhlNDCPolyline
p916
aVNhlNDCPolymarker
p917
aVNhlNDCToData
p918
aVNhlNewColor
p919
aVNhlNewDashPattern
p920
aVNhlNewMarker
p921
aVNhlPalGetDefined
p922
aVNhlRemoveAnnotation
p923
aVNhlRemoveData
p924
aVNhlRemoveOverlay
p925
aVNhlRemovePrimitive
p926
aVNhlSetColor
p927
aVNhlSetDashPattern
p928
aVNhlSetMarker
p929
aVNhlUpdateData
p930
aVNhlUpdateWorkstation
p931
aVnice_mnmxintvl
p932
aVnngetaspectd
p933
aVnngetaspects
p934
aVnngetp
p935
aVnngetsloped
p936
aVnngetslopes
p937
aVnngetwts
p938
aVnngetwtsd
p939
aVnnpnt
p940
aVnnpntd
p941
aVnnpntend
p942
aVnnpntendd
p943
aVnnpntinit
p944
aVnnpntinitd
p945
aVnnpntinits
p946
aVnnpnts
p947
aVnnsetp
p948
aVnum
p949
aVobj_anal_ic
p950
aVomega_ccm
p951
aVonedtond
p952
aVoverlay
p953
aVpaleo_outline
p954
aVpdfxy_bin
p955
aVpoisson_grid_fill
p956
aVpop_remap
p957
aVpotmp_insitu_ocn
p958
aVprcwater_dp
p959
aVpres2hybrid
p960
aVpres_hybrid_ccm
p961
aVpres_hybrid_jra55
p962
aVpres_sigma
p963
aVprint
p964
aVprint_table
p965
aVprintFileVarSummary
p966
aVprintVarSummary
p967
aVproduct
p968
aVpslec
p969
aVpslhor
p970
aVpslhyp
p971
aVqsort
p972
aVrand
p973
aVrandom_chi
p974
aVrandom_gamma
p975
aVrandom_normal
p976
aVrandom_setallseed
p977
aVrandom_uniform
p978
aVrcm2points
p979
aVrcm2rgrid
p980
aVrdsstoi
p981
aVread_colormap_file
p982
aVreg_multlin
p983
aVregcoef
p984
aVregCoef
p985
aVregCoef_n
p986
aVregline
p987
aVrelhum
p988
aVrelhum_ice
p989
aVrelhum_water
p990
aVreplace_ieeenan
p991
aVreshape
p992
aVreshape_ind
p993
aVrgbhls
p994
aVrgbhsv
p995
aVrgbyiq
p996
aVrgrid2rcm
p997
aVrhomb_trunc
p998
aVrhomb_trunC
p999
aVrip_cape_2d
p1000
aVrip_cape_3d
p1001
aVround
p1002
aVrtest
p1003
aVrunave
p1004
aVrunave_n
p1005
aVset_default_fillvalue
p1006
aVset_sphere_radius
p1007
aVsetfileoption
p1008
aVsfvp2uvf
p1009
aVsfvp2uvg
p1010
aVshaeC
p1011
aVshaec
p1012
aVshagC
p1013
aVshagc
p1014
aVshgetnp
p1015
aVshgetp
p1016
aVshgrid
p1017
aVshorttobyte
p1018
aVshorttochar
p1019
aVshorttocharacter
p1020
aVshow_ascii
p1021
aVshsec
p1022
aVshseC
p1023
aVshsetp
p1024
aVshsgc
p1025
aVshsgC
p1026
aVshsgc_R42
p1027
aVsigma2hybrid
p1028
aVsimpeq
p1029
aVsimpne
p1030
aVsin
p1031
aVsindex_yrmo
p1032
aVsinh
p1033
aVsizeof
p1034
aVsleep
p1035
aVsmth9
p1036
aVsnindex_yrmo
p1037
aVsolve_linsys
p1038
aVspan_color_indexes
p1039
aVspan_color_rgba
p1040
aVspan_named_colors
p1041
aVsparse_matrix_mult
p1042
aVspcorr
p1043
aVspcorr_n
p1044
aVspecx_anal
p1045
aVspecxy_anal
p1046
aVsprintf
p1047
aVsprinti
p1048
aVsqrt
p1049
aVsqsort
p1050
aVsrand
p1051
aVstat2
p1052
aVstat4
p1053
aVstat_medrng
p1054
aVstat_trim
p1055
aVstatus_exit
p1056
aVstdatmus_p2tdz
p1057
aVstdatmus_z2tdp
p1058
aVstddev
p1059
aVstr_capital
p1060
aVstr_concat
p1061
aVstr_fields_count
p1062
aVstr_get_cols
p1063
aVstr_get_dq
p1064
aVstr_get_field
p1065
aVstr_get_nl
p1066
aVstr_get_sq
p1067
aVstr_get_tab
p1068
aVstr_index_of_substr
p1069
aVstr_insert
p1070
aVstr_is_blank
p1071
aVstr_join
p1072
aVstr_left_strip
p1073
aVstr_lower
p1074
aVstr_match
p1075
aVstr_match_ic
p1076
aVstr_match_ic_regex
p1077
aVstr_match_ind
p1078
aVstr_match_ind_ic
p1079
aVstr_match_ind_ic_regex
p1080
aVstr_match_ind_regex
p1081
aVstr_match_regex
p1082
aVstr_right_strip
p1083
aVstr_split
p1084
aVstr_split_by_length
p1085
aVstr_split_csv
p1086
aVstr_squeeze
p1087
aVstr_strip
p1088
aVstr_sub_str
p1089
aVstr_switch
p1090
aVstr_upper
p1091
aVstringtochar
p1092
aVstringtocharacter
p1093
aVstringtodouble
p1094
aVstringtofloat
p1095
aVstringtoint
p1096
aVstringtointeger
p1097
aVstringtolong
p1098
aVstringtoshort
p1099
aVstrlen
p1100
aVstudent_t
p1101
aVsum
p1102
aVsvd_lapack
p1103
aVsvdcov
p1104
aVsvdcov_sv
p1105
aVsvdstd
p1106
aVsvdstd_sv
p1107
aVsystem
p1108
aVsystemfunc
p1109
aVtan
p1110
aVtanh
p1111
aVtaper
p1112
aVtaper_n
p1113
aVtdclrs
p1114
aVtdctri
p1115
aVtdcudp
p1116
aVtdcurv
p1117
aVtddtri
p1118
aVtdez2d
p1119
aVtdez3d
p1120
aVtdgetp
p1121
aVtdgrds
p1122
aVtdgrid
p1123
aVtdgtrs
p1124
aVtdinit
p1125
aVtditri
p1126
aVtdlbla
p1127
aVtdlblp
p1128
aVtdlbls
p1129
aVtdline
p1130
aVtdlndp
p1131
aVtdlnpa
p1132
aVtdlpdp
p1133
aVtdmtri
p1134
aVtdotri
p1135
aVtdpara
p1136
aVtdplch
p1137
aVtdprpa
p1138
aVtdprpi
p1139
aVtdprpt
p1140
aVtdsetp
p1141
aVtdsort
p1142
aVtdstri
p1143
aVtdstrs
p1144
aVtdttri
p1145
aVthornthwaite
p1146
aVtobyte
p1147
aVtochar
p1148
aVtodouble
p1149
aVtofloat
p1150
aVtoint
p1151
aVtoint64
p1152
aVtointeger
p1153
aVtolong
p1154
aVtoshort
p1155
aVtosigned
p1156
aVtostring
p1157
aVtostring_with_format
p1158
aVtotype
p1159
aVtoubyte
p1160
aVtouint
p1161
aVtouint64
p1162
aVtoulong
p1163
aVtounsigned
p1164
aVtoushort
p1165
aVtrend_manken
p1166
aVtri_trunC
p1167
aVtri_trunc
p1168
aVtriple2grid
p1169
aVtriple2grid2d
p1170
aVtrop_wmo
p1171
aVttest
p1172
aVtypeof
p1173
aVundef
p1174
aVunique_string
p1175
aVupdate
p1176
aVushorttoint
p1177
aVut_calendar
p1178
aVut_inv_calendar
p1179
aVutm2latlon
p1180
aVuv2dv_cfd
p1181
aVuv2dvf
p1182
aVuv2dvF
p1183
aVuv2dvg
p1184
aVuv2dvG
p1185
aVuv2sfvpF
p1186
aVuv2sfvpf
p1187
aVuv2sfvpG
p1188
aVuv2sfvpg
p1189
aVuv2vr_cfd
p1190
aVuv2vrdvF
p1191
aVuv2vrdvf
p1192
aVuv2vrdvG
p1193
aVuv2vrdvg
p1194
aVuv2vrF
p1195
aVuv2vrf
p1196
aVuv2vrG
p1197
aVuv2vrg
p1198
aVv5d_close
p1199
aVv5d_create
p1200
aVv5d_setLowLev
p1201
aVv5d_setUnits
p1202
aVv5d_write
p1203
aVv5d_write_var
p1204
aVvariance
p1205
aVvhaeC
p1206
aVvhaec
p1207
aVvhagC
p1208
aVvhagc
p1209
aVvhseC
p1210
aVvhsec
p1211
aVvhsgc
p1212
aVvhsgC
p1213
aVvibeta
p1214
aVvinth2p
p1215
aVvinth2p_ecmwf
p1216
aVvinth2p_ecmwf_nodes
p1217
aVvinth2p_nodes
p1218
aVvintp2p_ecmwf
p1219
aVvr2uvf
p1220
aVvr2uvF
p1221
aVvr2uvg
p1222
aVvr2uvG
p1223
aVvrdv2uvf
p1224
aVvrdv2uvF
p1225
aVvrdv2uvg
p1226
aVvrdv2uvG
p1227
aVwavelet
p1228
aVwavelet_default
p1229
aVweibull
p1230
aVwetbulb
p1231
aVwgt_area_smooth
p1232
aVwgt_areaave
p1233
aVwgt_areaave2
p1234
aVwgt_arearmse
p1235
aVwgt_arearmse2
p1236
aVwgt_areasum2
p1237
aVwgt_runave
p1238
aVwgt_runave_n
p1239
aVwgt_vert_avg_beta
p1240
aVwgt_volave
p1241
aVwgt_volave_ccm
p1242
aVwgt_volrmse
p1243
aVwgt_volrmse_ccm
p1244
aVwhere
p1245
aVwk_smooth121
p1246
aVwmbarb
p1247
aVwmbarbmap
p1248
aVwmdrft
p1249
aVwmgetp
p1250
aVwmlabs
p1251
aVwmsetp
p1252
aVwmstnm
p1253
aVwmvect
p1254
aVwmvectmap
p1255
aVwmvlbl
p1256
aVwrf_avo
p1257
aVwrf_cape_2d
p1258
aVwrf_cape_3d
p1259
aVwrf_dbz
p1260
aVwrf_eth
p1261
aVwrf_helicity
p1262
aVwrf_ij_to_ll
p1263
aVwrf_interp_1d
p1264
aVwrf_interp_2d_xy
p1265
aVwrf_interp_3d_z
p1266
aVwrf_latlon_to_ij
p1267
aVwrf_ll_to_ij
p1268
aVwrf_omega
p1269
aVwrf_pvo
p1270
aVwrf_rh
p1271
aVwrf_slp
p1272
aVwrf_smooth_2d
p1273
aVwrf_td
p1274
aVwrf_tk
p1275
aVwrf_updraft_helicity
p1276
aVwrf_uvmet
p1277
aVwrf_virtual_temp
p1278
aVwrf_wetbulb
p1279
aVwrf_wps_close_int
p1280
aVwrf_wps_open_int
p1281
aVwrf_wps_rddata_int
p1282
aVwrf_wps_rdhead_int
p1283
aVwrf_wps_read_int
p1284
aVwrf_wps_write_int
p1285
aVwrite_matrix
p1286
aVwrite_table
p1287
aVyiqrgb
p1288
aVz2geouv
p1289
aVzonal_mpsi
p1290
aasS'user'
p1291
(lp1292
S'ncl_key_user'
p1293
aS'Ncl user_contributed functions.'
p1294
aS'http://www.ncl.ucar.edu//Document/Functions/User_contributed/'
p1295
a(lp1296
Vcalendar_decode2
p1297
aVcd_inv_string
p1298
aVcd_string
p1299
aVkf_filter
p1300
aVrun_cor
p1301
aVtime_axis_labels
p1302
aVut_string
p1303
aasS'keywords'
p1304
(lp1305
S'ncl_key_keywords'
p1306
aS'Reserved Keywords in ncl.'
p1307
aS'http://www.ncl.ucar.edu/Document/Manuals/Ref_Manual/NclKeywords.shtml'
p1308
a(lp1309
Vbegin
p1310
aVbreak
p1311
aVbyte
p1312
aVcharacter
p1313
aVcontinue
p1314
aVcreate
p1315
aVdefaultapp
p1316
aVdo
p1317
aVdouble
p1318
aVelse
p1319
aVend
p1320
aVenumeric
p1321
aVexternal
p1322
aVexit
p1323
aVFalse
p1324
aVfile
p1325
aVfloat
p1326
aVfunction
p1327
aVgetvalues
p1328
aVgraphic
p1329
aVgroup
p1330
aVif
p1331
aVinteger
p1332
aVint64
p1333
aVlist
p1334
aVload
p1335
aVlocal
p1336
aVlogical
p1337
aVlong
p1338
aVnew
p1339
aV_Missing
p1340
aVMissing
p1341
aVnew
p1342
aVnoparent
p1343
aVnumeric
p1344
aVprocedure
p1345
aVquit
p1346
aVQUIT
p1347
aVQuit
p1348
aVrecord
p1349
aVreturn
p1350
aVsetvalues
p1351
aVshort
p1352
aVsnumeric
p1353
aVstop
p1354
aVstring
p1355
aVthen
p1356
aVTrue
p1357
aVubyte
p1358
aVuint
p1359
aVuint64
p1360
aVulong
p1361
aVushort
p1362
aVwhile
p1363
aasS'skewt'
p1364
(lp1365
S'ncl_key_skewt'
p1366
aS'Ncl skewt functions.'
p1367
aS'http://www.ncl.ucar.edu//Document/Functions/Skewt_func/'
p1368
a(lp1369
VskewT_BackGround
p1370
aVskewT_PlotData
p1371
aasS'resources'
p1372
(lp1373
S'ncl_key_resources'
p1374
aS'Ncl resources.'
p1375
aS'http://www.ncl.ucar.edu/Document/Graphics/Resources/list_alpha_res.shtml'
p1376
a(lp1377
VamDataXF
p1378
aVamDataYF
p1379
aVamJust
p1380
aVamOn
p1381
aVamOrthogonalPosF
p1382
aVamParallelPosF
p1383
aVamResizeNotify
p1384
aVamSide
p1385
aVamTrackData
p1386
aVamViewId
p1387
aVamZone
p1388
aVappDefaultParent
p1389
aVappFileSuffix
p1390
aVappResources
p1391
aVappSysDir
p1392
aVappUsrDir
p1393
aVcaCopyArrays
p1394
aVcaXArray
p1395
aVcaXCast
p1396
aVcaXMaxV
p1397
aVcaXMinV
p1398
aVcaXMissingV
p1399
aVcaYArray
p1400
aVcaYCast
p1401
aVcaYMaxV
p1402
aVcaYMinV
p1403
aVcaYMissingV
p1404
aVcnCellFillEdgeColor
p1405
aVcnCellFillMissingValEdgeColor
p1406
aVcnConpackParams
p1407
aVcnConstFEnableFill
p1408
aVcnConstFLabelAngleF
p1409
aVcnConstFLabelBackgroundColor
p1410
aVcnConstFLabelConstantSpacingF
p1411
aVcnConstFLabelFont
p1412
aVcnConstFLabelFontAspectF
p1413
aVcnConstFLabelFontColor
p1414
aVcnConstFLabelFontHeightF
p1415
aVcnConstFLabelFontQuality
p1416
aVcnConstFLabelFontThicknessF
p1417
aVcnConstFLabelFormat
p1418
aVcnConstFLabelFuncCode
p1419
aVcnConstFLabelJust
p1420
aVcnConstFLabelOn
p1421
aVcnConstFLabelOrthogonalPosF
p1422
aVcnConstFLabelParallelPosF
p1423
aVcnConstFLabelPerimColor
p1424
aVcnConstFLabelPerimOn
p1425
aVcnConstFLabelPerimSpaceF
p1426
aVcnConstFLabelPerimThicknessF
p1427
aVcnConstFLabelSide
p1428
aVcnConstFLabelString
p1429
aVcnConstFLabelTextDirection
p1430
aVcnConstFLabelZone
p1431
aVcnConstFUseInfoLabelRes
p1432
aVcnExplicitLabelBarLabelsOn
p1433
aVcnExplicitLegendLabelsOn
p1434
aVcnExplicitLineLabelsOn
p1435
aVcnFillBackgroundColor
p1436
aVcnFillColor
p1437
aVcnFillColors
p1438
aVcnFillDotSizeF
p1439
aVcnFillDrawOrder
p1440
aVcnFillMode
p1441
aVcnFillOn
p1442
aVcnFillOpacityF
p1443
aVcnFillPalette
p1444
aVcnFillPattern
p1445
aVcnFillPatterns
p1446
aVcnFillScaleF
p1447
aVcnFillScales
p1448
aVcnFixFillBleed
p1449
aVcnGridBoundFillColor
p1450
aVcnGridBoundFillPattern
p1451
aVcnGridBoundFillScaleF
p1452
aVcnGridBoundPerimColor
p1453
aVcnGridBoundPerimDashPattern
p1454
aVcnGridBoundPerimOn
p1455
aVcnGridBoundPerimThicknessF
p1456
aVcnHighLabelAngleF
p1457
aVcnHighLabelBackgroundColor
p1458
aVcnHighLabelConstantSpacingF
p1459
aVcnHighLabelCount
p1460
aVcnHighLabelFont
p1461
aVcnHighLabelFontAspectF
p1462
aVcnHighLabelFontColor
p1463
aVcnHighLabelFontHeightF
p1464
aVcnHighLabelFontQuality
p1465
aVcnHighLabelFontThicknessF
p1466
aVcnHighLabelFormat
p1467
aVcnHighLabelFuncCode
p1468
aVcnHighLabelPerimColor
p1469
aVcnHighLabelPerimOn
p1470
aVcnHighLabelPerimSpaceF
p1471
aVcnHighLabelPerimThicknessF
p1472
aVcnHighLabelString
p1473
aVcnHighLabelsOn
p1474
aVcnHighLowLabelOverlapMode
p1475
aVcnHighUseLineLabelRes
p1476
aVcnInfoLabelAngleF
p1477
aVcnInfoLabelBackgroundColor
p1478
aVcnInfoLabelConstantSpacingF
p1479
aVcnInfoLabelFont
p1480
aVcnInfoLabelFontAspectF
p1481
aVcnInfoLabelFontColor
p1482
aVcnInfoLabelFontHeightF
p1483
aVcnInfoLabelFontQuality
p1484
aVcnInfoLabelFontThicknessF
p1485
aVcnInfoLabelFormat
p1486
aVcnInfoLabelFuncCode
p1487
aVcnInfoLabelJust
p1488
aVcnInfoLabelOn
p1489
aVcnInfoLabelOrthogonalPosF
p1490
aVcnInfoLabelParallelPosF
p1491
aVcnInfoLabelPerimColor
p1492
aVcnInfoLabelPerimOn
p1493
aVcnInfoLabelPerimSpaceF
p1494
aVcnInfoLabelPerimThicknessF
p1495
aVcnInfoLabelSide
p1496
aVcnInfoLabelString
p1497
aVcnInfoLabelTextDirection
p1498
aVcnInfoLabelZone
p1499
aVcnLabelBarEndLabelsOn
p1500
aVcnLabelBarEndStyle
p1501
aVcnLabelDrawOrder
p1502
aVcnLabelMasking
p1503
aVcnLabelScaleFactorF
p1504
aVcnLabelScaleValueF
p1505
aVcnLabelScalingMode
p1506
aVcnLegendLevelFlags
p1507
aVcnLevelCount
p1508
aVcnLevelFlag
p1509
aVcnLevelFlags
p1510
aVcnLevelSelectionMode
p1511
aVcnLevelSpacingF
p1512
aVcnLevels
p1513
aVcnLineColor
p1514
aVcnLineColors
p1515
aVcnLineDashPattern
p1516
aVcnLineDashPatterns
p1517
aVcnLineDashSegLenF
p1518
aVcnLineDrawOrder
p1519
aVcnLineLabelAngleF
p1520
aVcnLineLabelBackgroundColor
p1521
aVcnLineLabelConstantSpacingF
p1522
aVcnLineLabelCount
p1523
aVcnLineLabelDensityF
p1524
aVcnLineLabelFont
p1525
aVcnLineLabelFontAspectF
p1526
aVcnLineLabelFontColor
p1527
aVcnLineLabelFontColors
p1528
aVcnLineLabelFontHeightF
p1529
aVcnLineLabelFontQuality
p1530
aVcnLineLabelFontThicknessF
p1531
aVcnLineLabelFormat
p1532
aVcnLineLabelFuncCode
p1533
aVcnLineLabelInterval
p1534
aVcnLineLabelPerimColor
p1535
aVcnLineLabelPerimOn
p1536
aVcnLineLabelPerimSpaceF
p1537
aVcnLineLabelPerimThicknessF
p1538
aVcnLineLabelPlacementMode
p1539
aVcnLineLabelStrings
p1540
aVcnLineLabelsOn
p1541
aVcnLineLabelsOn
p1542
aVcnLinePalette
p1543
aVcnLineThicknessF
p1544
aVcnLineThicknesses
p1545
aVcnLinesOn
p1546
aVcnLowLabelAngleF
p1547
aVcnLowLabelBackgroundColor
p1548
aVcnLowLabelConstantSpacingF
p1549
aVcnLowLabelCount
p1550
aVcnLowLabelFont
p1551
aVcnLowLabelFontAspectF
p1552
aVcnLowLabelFontColor
p1553
aVcnLowLabelFontHeightF
p1554
aVcnLowLabelFontQuality
p1555
aVcnLowLabelFontThicknessF
p1556
aVcnLowLabelFormat
p1557
aVcnLowLabelFuncCode
p1558
aVcnLowLabelPerimColor
p1559
aVcnLowLabelPerimOn
p1560
aVcnLowLabelPerimSpaceF
p1561
aVcnLowLabelPerimThicknessF
p1562
aVcnLowLabelString
p1563
aVcnLowLabelsOn
p1564
aVcnLowUseHighLabelRes
p1565
aVcnMaxDataValueFormat
p1566
aVcnMaxLevelCount
p1567
aVcnMaxLevelValF
p1568
aVcnMaxPointDistanceF
p1569
aVcnMinLevelValF
p1570
aVcnMissingValFillColor
p1571
aVcnMissingValFillPattern
p1572
aVcnMissingValFillScaleF
p1573
aVcnMissingValPerimColor
p1574
aVcnMissingValPerimDashPattern
p1575
aVcnMissingValPerimGridBoundOn
p1576
aVcnMissingValPerimOn
p1577
aVcnMissingValPerimThicknessF
p1578
aVcnMonoFillColor
p1579
aVcnMonoFillPattern
p1580
aVcnMonoFillScale
p1581
aVcnMonoLevelFlag
p1582
aVcnMonoLineColor
p1583
aVcnMonoLineDashPattern
p1584
aVcnMonoLineLabelFontColor
p1585
aVcnMonoLineThickness
p1586
aVcnNoDataLabelOn
p1587
aVcnNoDataLabelString
p1588
aVcnOutOfRangeFillColor
p1589
aVcnOutOfRangeFillPattern
p1590
aVcnOutOfRangeFillScaleF
p1591
aVcnOutOfRangePerimColor
p1592
aVcnOutOfRangePerimDashPattern
p1593
aVcnOutOfRangePerimOn
p1594
aVcnOutOfRangePerimThicknessF
p1595
aVcnRasterCellSizeF
p1596
aVcnRasterMinCellSizeF
p1597
aVcnRasterModeOn
p1598
aVcnRasterSampleFactorF
p1599
aVcnRasterSmoothingOn
p1600
aVcnScalarFieldData
p1601
aVcnSmoothingDistanceF
p1602
aVcnSmoothingOn
p1603
aVcnSmoothingTensionF
p1604
aVcnSpanFillPalette
p1605
aVcnSpanLinePalette
p1606
aVctCopyTables
p1607
aVctXElementSize
p1608
aVctXMaxV
p1609
aVctXMinV
p1610
aVctXMissingV
p1611
aVctXTable
p1612
aVctXTableLengths
p1613
aVctXTableType
p1614
aVctYElementSize
p1615
aVctYMaxV
p1616
aVctYMinV
p1617
aVctYMissingV
p1618
aVctYTable
p1619
aVctYTableLengths
p1620
aVctYTableType
p1621
aVdcDelayCompute
p1622
aVerrBuffer
p1623
aVerrFileName
p1624
aVerrFilePtr
p1625
aVerrLevel
p1626
aVerrPrint
p1627
aVerrUnitNumber
p1628
aVgsClipOn
p1629
aVgsColors
p1630
aVgsEdgeColor
p1631
aVgsEdgeDashPattern
p1632
aVgsEdgeDashSegLenF
p1633
aVgsEdgeThicknessF
p1634
aVgsEdgesOn
p1635
aVgsFillBackgroundColor
p1636
aVgsFillColor
p1637
aVgsFillDotSizeF
p1638
aVgsFillIndex
p1639
aVgsFillLineThicknessF
p1640
aVgsFillOpacityF
p1641
aVgsFillScaleF
p1642
aVgsFont
p1643
aVgsFontAspectF
p1644
aVgsFontColor
p1645
aVgsFontHeightF
p1646
aVgsFontOpacityF
p1647
aVgsFontQuality
p1648
aVgsFontThicknessF
p1649
aVgsLineColor
p1650
aVgsLineDashPattern
p1651
aVgsLineDashSegLenF
p1652
aVgsLineLabelConstantSpacingF
p1653
aVgsLineLabelFont
p1654
aVgsLineLabelFontAspectF
p1655
aVgsLineLabelFontColor
p1656
aVgsLineLabelFontHeightF
p1657
aVgsLineLabelFontQuality
p1658
aVgsLineLabelFontThicknessF
p1659
aVgsLineLabelFuncCode
p1660
aVgsLineLabelString
p1661
aVgsLineOpacityF
p1662
aVgsLineThicknessF
p1663
aVgsMarkerColor
p1664
aVgsMarkerIndex
p1665
aVgsMarkerOpacityF
p1666
aVgsMarkerSizeF
p1667
aVgsMarkerThicknessF
p1668
aVgsSegments
p1669
aVgsTextAngleF
p1670
aVgsTextConstantSpacingF
p1671
aVgsTextDirection
p1672
aVgsTextFuncCode
p1673
aVgsTextJustification
p1674
aVgsnAboveYRefLineBarColors
p1675
aVgsnAboveYRefLineBarFillScales
p1676
aVgsnAboveYRefLineBarPatterns
p1677
aVgsnAboveYRefLineColor
p1678
aVgsnAddCyclic
p1679
aVgsnAttachBorderOn
p1680
aVgsnAttachPlotsXAxis
p1681
aVgsnBelowYRefLineBarColors
p1682
aVgsnBelowYRefLineBarFillScales
p1683
aVgsnBelowYRefLineBarPatterns
p1684
aVgsnBelowYRefLineColor
p1685
aVgsnBoxMargin
p1686
aVgsnCenterString
p1687
aVgsnCenterStringFontColor
p1688
aVgsnCenterStringFontHeightF
p1689
aVgsnCenterStringFuncCode
p1690
aVgsnCenterStringOrthogonalPosF
p1691
aVgsnCenterStringParallelPosF
p1692
aVgsnContourLineThicknessesScale
p1693
aVgsnContourNegLineDashPattern
p1694
aVgsnContourPosLineDashPattern
p1695
aVgsnContourZeroLineThicknessF
p1696
aVgsnDebugWriteFileName
p1697
aVgsnDraw
p1698
aVgsnFrame
p1699
aVgsnHistogramBarColors
p1700
aVgsnHistogramBarWidthPercent
p1701
aVgsnHistogramBinIntervals
p1702
aVgsnHistogramBinMissing
p1703
aVgsnHistogramBinWidth
p1704
aVgsnHistogramClassIntervals
p1705
aVgsnHistogramCompare
p1706
aVgsnHistogramComputePercentages
p1707
aVgsnHistogramComputePercentagesNoMissing
p1708
aVgsnHistogramDiscreteBinValues
p1709
aVgsnHistogramDiscreteClassValues
p1710
aVgsnHistogramHorizontal
p1711
aVgsnHistogramMinMaxBinsOn
p1712
aVgsnHistogramNumberOfBins
p1713
aVgsnHistogramPercentSign
p1714
aVgsnHistogramSelectNiceIntervals
p1715
aVgsnLeftString
p1716
aVgsnLeftStringFontColor
p1717
aVgsnLeftStringFontHeightF
p1718
aVgsnLeftStringFuncCode
p1719
aVgsnLeftStringOrthogonalPosF
p1720
aVgsnLeftStringParallelPosF
p1721
aVgsnMajorLatSpacing
p1722
aVgsnMajorLonSpacing
p1723
aVgsnMaskLambertConformal
p1724
aVgsnMaskLambertConformalOutlineOn
p1725
aVgsnMaximize
p1726
aVgsnMinorLatSpacing
p1727
aVgsnMinorLonSpacing
p1728
aVgsnPanelBottom
p1729
aVgsnPanelCenter
p1730
aVgsnPanelDebug
p1731
aVgsnPanelFigureStrings
p1732
aVgsnPanelFigureStringsBackgroundFillColor
p1733
aVgsnPanelFigureStringsFontHeightF
p1734
aVgsnPanelFigureStringsJust
p1735
aVgsnPanelFigureStringsPerimOn
p1736
aVgsnPanelLabelBar
p1737
aVgsnPanelLeft
p1738
aVgsnPanelMainFont
p1739
aVgsnPanelMainFontColor
p1740
aVgsnPanelMainFontHeightF
p1741
aVgsnPanelMainString
p1742
aVgsnPanelRight
p1743
aVgsnPanelRowSpec
p1744
aVgsnPanelScalePlotIndex
p1745
aVgsnPanelTop
p1746
aVgsnPanelXF
p1747
aVgsnPanelXWhiteSpacePercent
p1748
aVgsnPanelYF
p1749
aVgsnPanelYWhiteSpacePercent
p1750
aVgsnPaperHeight
p1751
aVgsnPaperMargin
p1752
aVgsnPaperOrientation
p1753
aVgsnPaperWidth
p1754
aVgsnPolar
p1755
aVgsnPolarLabelDistance
p1756
aVgsnPolarLabelFont
p1757
aVgsnPolarLabelFontHeightF
p1758
aVgsnPolarLabelSpacing
p1759
aVgsnPolarTime
p1760
aVgsnPolarUT
p1761
aVgsnRightString
p1762
aVgsnRightStringFontColor
p1763
aVgsnRightStringFontHeightF
p1764
aVgsnRightStringFuncCode
p1765
aVgsnRightStringOrthogonalPosF
p1766
aVgsnRightStringParallelPosF
p1767
aVgsnScalarContour
p1768
aVgsnScale
p1769
aVgsnShape
p1770
aVgsnSpreadColorEnd
p1771
aVgsnSpreadColorStart
p1772
aVgsnSpreadColors
p1773
aVgsnStringFont
p1774
aVgsnStringFontColor
p1775
aVgsnStringFontHeightF
p1776
aVgsnStringFuncCode
p1777
aVgsnTickMarksOn
p1778
aVgsnXAxisIrregular2Linear
p1779
aVgsnXAxisIrregular2Log
p1780
aVgsnXRefLine
p1781
aVgsnXRefLineColor
p1782
aVgsnXRefLineDashPattern
p1783
aVgsnXRefLineThicknessF
p1784
aVgsnXYAboveFillColors
p1785
aVgsnXYBarChart
p1786
aVgsnXYBarChartBarWidth
p1787
aVgsnXYBarChartColors
p1788
aVgsnXYBarChartColors2
p1789
aVgsnXYBarChartFillDotSizeF
p1790
aVgsnXYBarChartFillLineThicknessF
p1791
aVgsnXYBarChartFillOpacityF
p1792
aVgsnXYBarChartFillScaleF
p1793
aVgsnXYBarChartOutlineOnly
p1794
aVgsnXYBarChartOutlineThicknessF
p1795
aVgsnXYBarChartPatterns
p1796
aVgsnXYBarChartPatterns2
p1797
aVgsnXYBelowFillColors
p1798
aVgsnXYFillColors
p1799
aVgsnXYFillOpacities
p1800
aVgsnXYLeftFillColors
p1801
aVgsnXYRightFillColors
p1802
aVgsnYAxisIrregular2Linear
p1803
aVgsnYAxisIrregular2Log
p1804
aVgsnYRefLine
p1805
aVgsnYRefLineColor
p1806
aVgsnYRefLineColors
p1807
aVgsnYRefLineDashPattern
p1808
aVgsnYRefLineDashPatterns
p1809
aVgsnYRefLineThicknessF
p1810
aVgsnYRefLineThicknesses
p1811
aVgsnZonalMean
p1812
aVgsnZonalMeanXMaxF
p1813
aVgsnZonalMeanXMinF
p1814
aVgsnZonalMeanYRefLine
p1815
aVlbAutoManage
p1816
aVlbBottomMarginF
p1817
aVlbBoxCount
p1818
aVlbBoxEndCapStyle
p1819
aVlbBoxFractions
p1820
aVlbBoxLineColor
p1821
aVlbBoxLineDashPattern
p1822
aVlbBoxLineDashSegLenF
p1823
aVlbBoxLineThicknessF
p1824
aVlbBoxLinesOn
p1825
aVlbBoxMajorExtentF
p1826
aVlbBoxMinorExtentF
p1827
aVlbBoxSeparatorLinesOn
p1828
aVlbBoxSizing
p1829
aVlbFillBackground
p1830
aVlbFillColor
p1831
aVlbFillColors
p1832
aVlbFillDotSizeF
p1833
aVlbFillLineThicknessF
p1834
aVlbFillPattern
p1835
aVlbFillPatterns
p1836
aVlbFillScaleF
p1837
aVlbFillScales
p1838
aVlbJustification
p1839
aVlbLabelAlignment
p1840
aVlbLabelAngleF
p1841
aVlbLabelAutoStride
p1842
aVlbLabelBarOn
p1843
aVlbLabelConstantSpacingF
p1844
aVlbLabelDirection
p1845
aVlbLabelFont
p1846
aVlbLabelFontAspectF
p1847
aVlbLabelFontColor
p1848
aVlbLabelFontHeightF
p1849
aVlbLabelFontQuality
p1850
aVlbLabelFontThicknessF
p1851
aVlbLabelFuncCode
p1852
aVlbLabelJust
p1853
aVlbLabelOffsetF
p1854
aVlbLabelPosition
p1855
aVlbLabelStride
p1856
aVlbLabelStrings
p1857
aVlbLabelsOn
p1858
aVlbLeftMarginF
p1859
aVlbMaxLabelLenF
p1860
aVlbMinLabelSpacingF
p1861
aVlbMonoFillColor
p1862
aVlbMonoFillPattern
p1863
aVlbMonoFillScale
p1864
aVlbOrientation
p1865
aVlbPerimColor
p1866
aVlbPerimDashPattern
p1867
aVlbPerimDashSegLenF
p1868
aVlbPerimFill
p1869
aVlbPerimFillColor
p1870
aVlbPerimOn
p1871
aVlbPerimThicknessF
p1872
aVlbRasterFillOn
p1873
aVlbRightMarginF
p1874
aVlbTitleAngleF
p1875
aVlbTitleConstantSpacingF
p1876
aVlbTitleDirection
p1877
aVlbTitleExtentF
p1878
aVlbTitleFont
p1879
aVlbTitleFontAspectF
p1880
aVlbTitleFontColor
p1881
aVlbTitleFontHeightF
p1882
aVlbTitleFontQuality
p1883
aVlbTitleFontThicknessF
p1884
aVlbTitleFuncCode
p1885
aVlbTitleJust
p1886
aVlbTitleOffsetF
p1887
aVlbTitleOn
p1888
aVlbTitlePosition
p1889
aVlbTitleString
p1890
aVlbTopMarginF
p1891
aVlgAutoManage
p1892
aVlgBottomMarginF
p1893
aVlgBoxBackground
p1894
aVlgBoxLineColor
p1895
aVlgBoxLineDashPattern
p1896
aVlgBoxLineDashSegLenF
p1897
aVlgBoxLineThicknessF
p1898
aVlgBoxLinesOn
p1899
aVlgBoxMajorExtentF
p1900
aVlgBoxMinorExtentF
p1901
aVlgDashIndex
p1902
aVlgDashIndexes
p1903
aVlgItemCount
p1904
aVlgItemOrder
p1905
aVlgItemPlacement
p1906
aVlgItemPositions
p1907
aVlgItemType
p1908
aVlgItemTypes
p1909
aVlgJustification
p1910
aVlgLabelAlignment
p1911
aVlgLabelAngleF
p1912
aVlgLabelAutoStride
p1913
aVlgLabelConstantSpacingF
p1914
aVlgLabelDirection
p1915
aVlgLabelFont
p1916
aVlgLabelFontAspectF
p1917
aVlgLabelFontColor
p1918
aVlgLabelFontHeightF
p1919
aVlgLabelFontQuality
p1920
aVlgLabelFontThicknessF
p1921
aVlgLabelFuncCode
p1922
aVlgLabelJust
p1923
aVlgLabelOffsetF
p1924
aVlgLabelPosition
p1925
aVlgLabelStride
p1926
aVlgLabelStrings
p1927
aVlgLabelsOn
p1928
aVlgLeftMarginF
p1929
aVlgLegendOn
p1930
aVlgLineColor
p1931
aVlgLineColors
p1932
aVlgLineDashSegLenF
p1933
aVlgLineDashSegLens
p1934
aVlgLineLabelConstantSpacingF
p1935
aVlgLineLabelFont
p1936
aVlgLineLabelFontAspectF
p1937
aVlgLineLabelFontColor
p1938
aVlgLineLabelFontColors
p1939
aVlgLineLabelFontHeightF
p1940
aVlgLineLabelFontHeights
p1941
aVlgLineLabelFontQuality
p1942
aVlgLineLabelFontThicknessF
p1943
aVlgLineLabelFuncCode
p1944
aVlgLineLabelStrings
p1945
aVlgLineLabelsOn
p1946
aVlgLineThicknessF
p1947
aVlgLineThicknesses
p1948
aVlgMarkerColor
p1949
aVlgMarkerColors
p1950
aVlgMarkerIndex
p1951
aVlgMarkerIndexes
p1952
aVlgMarkerSizeF
p1953
aVlgMarkerSizes
p1954
aVlgMarkerThicknessF
p1955
aVlgMarkerThicknesses
p1956
aVlgMonoDashIndex
p1957
aVlgMonoItemType
p1958
aVlgMonoLineColor
p1959
aVlgMonoLineDashSegLen
p1960
aVlgMonoLineLabelFontColor
p1961
aVlgMonoLineLabelFontHeight
p1962
aVlgMonoLineThickness
p1963
aVlgMonoMarkerColor
p1964
aVlgMonoMarkerIndex
p1965
aVlgMonoMarkerSize
p1966
aVlgMonoMarkerThickness
p1967
aVlgOrientation
p1968
aVlgPerimColor
p1969
aVlgPerimDashPattern
p1970
aVlgPerimDashSegLenF
p1971
aVlgPerimFill
p1972
aVlgPerimFillColor
p1973
aVlgPerimOn
p1974
aVlgPerimThicknessF
p1975
aVlgRightMarginF
p1976
aVlgTitleAngleF
p1977
aVlgTitleConstantSpacingF
p1978
aVlgTitleDirection
p1979
aVlgTitleExtentF
p1980
aVlgTitleFont
p1981
aVlgTitleFontAspectF
p1982
aVlgTitleFontColor
p1983
aVlgTitleFontHeightF
p1984
aVlgTitleFontQuality
p1985
aVlgTitleFontThicknessF
p1986
aVlgTitleFuncCode
p1987
aVlgTitleJust
p1988
aVlgTitleOffsetF
p1989
aVlgTitleOn
p1990
aVlgTitlePosition
p1991
aVlgTitleString
p1992
aVlgTopMarginF
p1993
aVmpAreaGroupCount
p1994
aVmpAreaMaskingOn
p1995
aVmpAreaNames
p1996
aVmpAreaTypes
p1997
aVmpBottomAngleF
p1998
aVmpBottomMapPosF
p1999
aVmpBottomNDCF
p2000
aVmpBottomNPCF
p2001
aVmpBottomPointLatF
p2002
aVmpBottomPointLonF
p2003
aVmpBottomWindowF
p2004
aVmpCenterLatF
p2005
aVmpCenterLonF
p2006
aVmpCenterRotF
p2007
aVmpCountyLineColor
p2008
aVmpCountyLineDashPattern
p2009
aVmpCountyLineDashSegLenF
p2010
aVmpCountyLineThicknessF
p2011
aVmpDataBaseVersion
p2012
aVmpDataResolution
p2013
aVmpDataSetName
p2014
aVmpDefaultFillColor
p2015
aVmpDefaultFillPattern
p2016
aVmpDefaultFillScaleF
p2017
aVmpDynamicAreaGroups
p2018
aVmpEllipticalBoundary
p2019
aVmpFillAreaSpecifiers
p2020
aVmpFillBoundarySets
p2021
aVmpFillColor
p2022
aVmpFillColors
p2023
aVmpFillDotSizeF
p2024
aVmpFillDrawOrder
p2025
aVmpFillOn
p2026
aVmpFillPatternBackground
p2027
aVmpFillPattern
p2028
aVmpFillPatterns
p2029
aVmpFillScaleF
p2030
aVmpFillScales
p2031
aVmpFixedAreaGroups
p2032
aVmpGeophysicalLineColor
p2033
aVmpGeophysicalLineDashPattern
p2034
aVmpGeophysicalLineDashSegLenF
p2035
aVmpGeophysicalLineThicknessF
p2036
aVmpGreatCircleLinesOn
p2037
aVmpGridAndLimbDrawOrder
p2038
aVmpGridAndLimbOn
p2039
aVmpGridLatSpacingF
p2040
aVmpGridLineColor
p2041
aVmpGridLineDashPattern
p2042
aVmpGridLineDashSegLenF
p2043
aVmpGridLineThicknessF
p2044
aVmpGridLonSpacingF
p2045
aVmpGridMaskMode
p2046
aVmpGridMaxLatF
p2047
aVmpGridPolarLonSpacingF
p2048
aVmpGridSpacingF
p2049
aVmpInlandWaterFillColor
p2050
aVmpInlandWaterFillPattern
p2051
aVmpInlandWaterFillScaleF
p2052
aVmpLabelDrawOrder
p2053
aVmpLabelFontColor
p2054
aVmpLabelFontHeightF
p2055
aVmpLabelsOn
p2056
aVmpLambertMeridianF
p2057
aVmpLambertParallel1F
p2058
aVmpLambertParallel2F
p2059
aVmpLandFillColor
p2060
aVmpLandFillPattern
p2061
aVmpLandFillScaleF
p2062
aVmpLeftAngleF
p2063
aVmpLeftCornerLatF
p2064
aVmpLeftCornerLonF
p2065
aVmpLeftMapPosF
p2066
aVmpLeftNDCF
p2067
aVmpLeftNPCF
p2068
aVmpLeftPointLatF
p2069
aVmpLeftPointLonF
p2070
aVmpLeftWindowF
p2071
aVmpLimbLineColor
p2072
aVmpLimbLineDashPattern
p2073
aVmpLimbLineDashSegLenF
p2074
aVmpLimbLineThicknessF
p2075
aVmpLimitMode
p2076
aVmpMaskAreaSpecifiers
p2077
aVmpMaskOutlineSpecifiers
p2078
aVmpMaxLatF
p2079
aVmpMaxLonF
p2080
aVmpMinLatF
p2081
aVmpMinLonF
p2082
aVmpMonoFillColor
p2083
aVmpMonoFillPattern
p2084
aVmpMonoFillScale
p2085
aVmpNationalLineColor
p2086
aVmpNationalLineDashPattern
p2087
aVmpNationalLineDashSegLenF
p2088
aVmpNationalLineThicknessF
p2089
aVmpOceanFillColor
p2090
aVmpOceanFillPattern
p2091
aVmpOceanFillScaleF
p2092
aVmpOutlineBoundarySets
p2093
aVmpOutlineDrawOrder
p2094
aVmpOutlineMaskingOn
p2095
aVmpOutlineOn
p2096
aVmpOutlineSpecifiers
p2097
aVmpPerimDrawOrder
p2098
aVmpPerimLineColor
p2099
aVmpPerimLineDashPattern
p2100
aVmpPerimLineDashSegLenF
p2101
aVmpPerimLineThicknessF
p2102
aVmpPerimOn
p2103
aVmpPolyMode
p2104
aVmpProjection
p2105
aVmpProvincialLineColor
p2106
aVmpProvincialLineDashPattern
p2107
aVmpProvincialLineDashSegLenF
p2108
aVmpProvincialLineThicknessF
p2109
aVmpRelativeCenterLat
p2110
aVmpRelativeCenterLon
p2111
aVmpRightAngleF
p2112
aVmpRightCornerLatF
p2113
aVmpRightCornerLonF
p2114
aVmpRightMapPosF
p2115
aVmpRightNDCF
p2116
aVmpRightNPCF
p2117
aVmpRightPointLatF
p2118
aVmpRightPointLonF
p2119
aVmpRightWindowF
p2120
aVmpSatelliteAngle1F
p2121
aVmpSatelliteAngle2F
p2122
aVmpSatelliteDistF
p2123
aVmpShapeMode
p2124
aVmpSpecifiedFillColors
p2125
aVmpSpecifiedFillDirectIndexing
p2126
aVmpSpecifiedFillPatterns
p2127
aVmpSpecifiedFillPriority
p2128
aVmpSpecifiedFillScales
p2129
aVmpTopAngleF
p2130
aVmpTopMapPosF
p2131
aVmpTopNDCF
p2132
aVmpTopNPCF
p2133
aVmpTopPointLatF
p2134
aVmpTopPointLonF
p2135
aVmpTopWindowF
p2136
aVmpUSStateLineColor
p2137
aVmpUSStateLineDashPattern
p2138
aVmpUSStateLineDashSegLenF
p2139
aVmpUSStateLineThicknessF
p2140
aVpmAnnoManagers
p2141
aVpmAnnoViews
p2142
aVpmLabelBarDisplayMode
p2143
aVpmLabelBarHeightF
p2144
aVpmLabelBarKeepAspect
p2145
aVpmLabelBarOrthogonalPosF
p2146
aVpmLabelBarParallelPosF
p2147
aVpmLabelBarSide
p2148
aVpmLabelBarWidthF
p2149
aVpmLabelBarZone
p2150
aVpmLegendDisplayMode
p2151
aVpmLegendHeightF
p2152
aVpmLegendKeepAspect
p2153
aVpmLegendOrthogonalPosF
p2154
aVpmLegendParallelPosF
p2155
aVpmLegendSide
p2156
aVpmLegendWidthF
p2157
aVpmLegendZone
p2158
aVpmOverlaySequenceIds
p2159
aVpmTickMarkDisplayMode
p2160
aVpmTickMarkZone
p2161
aVpmTitleDisplayMode
p2162
aVpmTitleZone
p2163
aVprGraphicStyle
p2164
aVprPolyType
p2165
aVprXArray
p2166
aVprYArray
p2167
aVsfCopyData
p2168
aVsfCopyData
p2169
aVsfDataArray
p2170
aVsfDataArray
p2171
aVsfDataMaxV
p2172
aVsfDataMaxV
p2173
aVsfDataMinV
p2174
aVsfDataMinV
p2175
aVsfElementNodes
p2176
aVsfExchangeDimensions
p2177
aVsfFirstNodeIndex
p2178
aVsfMissingValueV
p2179
aVsfMissingValueV
p2180
aVsfXArray
p2181
aVsfXArray
p2182
aVsfXCActualEndF
p2183
aVsfXCActualEndF
p2184
aVsfXCActualStartF
p2185
aVsfXCActualStartF
p2186
aVsfXCEndIndex
p2187
aVsfXCEndSubsetV
p2188
aVsfXCEndV
p2189
aVsfXCStartIndex
p2190
aVsfXCStartSubsetV
p2191
aVsfXCStartV
p2192
aVsfXCStride
p2193
aVsfXCellBounds
p2194
aVsfYArray
p2195
aVsfYArray
p2196
aVsfYCActualEndF
p2197
aVsfYCActualEndF
p2198
aVsfYCActualStartF
p2199
aVsfYCActualStartF
p2200
aVsfYCEndIndex
p2201
aVsfYCEndSubsetV
p2202
aVsfYCEndV
p2203
aVsfYCStartIndex
p2204
aVsfYCStartSubsetV
p2205
aVsfYCStartV
p2206
aVsfYCStride
p2207
aVsfYCellBounds
p2208
aVstArrowLengthF
p2209
aVstArrowStride
p2210
aVstCrossoverCheckCount
p2211
aVstExplicitLabelBarLabelsOn
p2212
aVstLabelBarEndLabelsOn
p2213
aVstLabelFormat
p2214
aVstLengthCheckCount
p2215
aVstLevelColors
p2216
aVstLevelCount
p2217
aVstLevelPalette
p2218
aVstLevelSelectionMode
p2219
aVstLevelSpacingF
p2220
aVstLevels
p2221
aVstLineColor
p2222
aVstLineOpacityF
p2223
aVstLineStartStride
p2224
aVstLineThicknessF
p2225
aVstMapDirection
p2226
aVstMaxLevelCount
p2227
aVstMaxLevelValF
p2228
aVstMinArrowSpacingF
p2229
aVstMinDistanceF
p2230
aVstMinLevelValF
p2231
aVstMinLineSpacingF
p2232
aVstMinStepFactorF
p2233
aVstMonoLineColor
p2234
aVstNoDataLabelOn
p2235
aVstNoDataLabelString
p2236
aVstScalarFieldData
p2237
aVstScalarMissingValColor
p2238
aVstSpanLevelPalette
p2239
aVstStepSizeF
p2240
aVstStreamlineDrawOrder
p2241
aVstUseScalarArray
p2242
aVstVectorFieldData
p2243
aVstZeroFLabelAngleF
p2244
aVstZeroFLabelBackgroundColor
p2245
aVstZeroFLabelConstantSpacingF
p2246
aVstZeroFLabelFont
p2247
aVstZeroFLabelFontAspectF
p2248
aVstZeroFLabelFontColor
p2249
aVstZeroFLabelFontHeightF
p2250
aVstZeroFLabelFontQuality
p2251
aVstZeroFLabelFontThicknessF
p2252
aVstZeroFLabelFuncCode
p2253
aVstZeroFLabelJust
p2254
aVstZeroFLabelOn
p2255
aVstZeroFLabelOrthogonalPosF
p2256
aVstZeroFLabelParallelPosF
p2257
aVstZeroFLabelPerimColor
p2258
aVstZeroFLabelPerimOn
p2259
aVstZeroFLabelPerimSpaceF
p2260
aVstZeroFLabelPerimThicknessF
p2261
aVstZeroFLabelSide
p2262
aVstZeroFLabelString
p2263
aVstZeroFLabelTextDirection
p2264
aVstZeroFLabelZone
p2265
aVtfDoNDCOverlay
p2266
aVtfPlotManagerOn
p2267
aVtfPolyDrawList
p2268
aVtfPolyDrawOrder
p2269
aVtiDeltaF
p2270
aVtiMainAngleF
p2271
aVtiMainConstantSpacingF
p2272
aVtiMainDirection
p2273
aVtiMainFont
p2274
aVtiMainFontAspectF
p2275
aVtiMainFontColor
p2276
aVtiMainFontHeightF
p2277
aVtiMainFontQuality
p2278
aVtiMainFontThicknessF
p2279
aVtiMainFuncCode
p2280
aVtiMainJust
p2281
aVtiMainOffsetXF
p2282
aVtiMainOffsetYF
p2283
aVtiMainOn
p2284
aVtiMainPosition
p2285
aVtiMainSide
p2286
aVtiMainString
p2287
aVtiUseMainAttributes
p2288
aVtiXAxisAngleF
p2289
aVtiXAxisConstantSpacingF
p2290
aVtiXAxisDirection
p2291
aVtiXAxisFont
p2292
aVtiXAxisFontAspectF
p2293
aVtiXAxisFontColor
p2294
aVtiXAxisFontHeightF
p2295
aVtiXAxisFontQuality
p2296
aVtiXAxisFontThicknessF
p2297
aVtiXAxisFuncCode
p2298
aVtiXAxisJust
p2299
aVtiXAxisOffsetXF
p2300
aVtiXAxisOffsetYF
p2301
aVtiXAxisOn
p2302
aVtiXAxisPosition
p2303
aVtiXAxisSide
p2304
aVtiXAxisString
p2305
aVtiYAxisAngleF
p2306
aVtiYAxisConstantSpacingF
p2307
aVtiYAxisDirection
p2308
aVtiYAxisFont
p2309
aVtiYAxisFontAspectF
p2310
aVtiYAxisFontColor
p2311
aVtiYAxisFontHeightF
p2312
aVtiYAxisFontQuality
p2313
aVtiYAxisFontThicknessF
p2314
aVtiYAxisFuncCode
p2315
aVtiYAxisJust
p2316
aVtiYAxisOffsetXF
p2317
aVtiYAxisOffsetYF
p2318
aVtiYAxisOn
p2319
aVtiYAxisPosition
p2320
aVtiYAxisSide
p2321
aVtiYAxisString
p2322
aVtmBorderLineColor
p2323
aVtmBorderThicknessF
p2324
aVtmEqualizeXYSizes
p2325
aVtmLabelAutoStride
p2326
aVtmSciNoteCutoff
p2327
aVtmXBAutoPrecision
p2328
aVtmXBBorderOn
p2329
aVtmXBDataLeftF
p2330
aVtmXBDataRightF
p2331
aVtmXBFormat
p2332
aVtmXBIrrTensionF
p2333
aVtmXBIrregularPoints
p2334
aVtmXBLabelAngleF
p2335
aVtmXBLabelConstantSpacingF
p2336
aVtmXBLabelDeltaF
p2337
aVtmXBLabelDirection
p2338
aVtmXBLabelFont
p2339
aVtmXBLabelFontAspectF
p2340
aVtmXBLabelFontColor
p2341
aVtmXBLabelFontHeightF
p2342
aVtmXBLabelFontQuality
p2343
aVtmXBLabelFontThicknessF
p2344
aVtmXBLabelFuncCode
p2345
aVtmXBLabelJust
p2346
aVtmXBLabelStride
p2347
aVtmXBLabels
p2348
aVtmXBLabelsOn
p2349
aVtmXBMajorLengthF
p2350
aVtmXBMajorLineColor
p2351
aVtmXBMajorOutwardLengthF
p2352
aVtmXBMajorThicknessF
p2353
aVtmXBMaxLabelLenF
p2354
aVtmXBMaxTicks
p2355
aVtmXBMinLabelSpacingF
p2356
aVtmXBMinorLengthF
p2357
aVtmXBMinorLineColor
p2358
aVtmXBMinorOn
p2359
aVtmXBMinorOutwardLengthF
p2360
aVtmXBMinorPerMajor
p2361
aVtmXBMinorThicknessF
p2362
aVtmXBMinorValues
p2363
aVtmXBMode
p2364
aVtmXBOn
p2365
aVtmXBPrecision
p2366
aVtmXBStyle
p2367
aVtmXBTickEndF
p2368
aVtmXBTickSpacingF
p2369
aVtmXBTickStartF
p2370
aVtmXBValues
p2371
aVtmXMajorGrid
p2372
aVtmXMajorGridLineColor
p2373
aVtmXMajorGridLineDashPattern
p2374
aVtmXMajorGridThicknessF
p2375
aVtmXMinorGrid
p2376
aVtmXMinorGridLineColor
p2377
aVtmXMinorGridLineDashPattern
p2378
aVtmXMinorGridThicknessF
p2379
aVtmXTAutoPrecision
p2380
aVtmXTBorderOn
p2381
aVtmXTDataLeftF
p2382
aVtmXTDataRightF
p2383
aVtmXTFormat
p2384
aVtmXTIrrTensionF
p2385
aVtmXTIrregularPoints
p2386
aVtmXTLabelAngleF
p2387
aVtmXTLabelConstantSpacingF
p2388
aVtmXTLabelDeltaF
p2389
aVtmXTLabelDirection
p2390
aVtmXTLabelFont
p2391
aVtmXTLabelFontAspectF
p2392
aVtmXTLabelFontColor
p2393
aVtmXTLabelFontHeightF
p2394
aVtmXTLabelFontQuality
p2395
aVtmXTLabelFontThicknessF
p2396
aVtmXTLabelFuncCode
p2397
aVtmXTLabelJust
p2398
aVtmXTLabelStride
p2399
aVtmXTLabels
p2400
aVtmXTLabelsOn
p2401
aVtmXTMajorLengthF
p2402
aVtmXTMajorLineColor
p2403
aVtmXTMajorOutwardLengthF
p2404
aVtmXTMajorThicknessF
p2405
aVtmXTMaxLabelLenF
p2406
aVtmXTMaxTicks
p2407
aVtmXTMinLabelSpacingF
p2408
aVtmXTMinorLengthF
p2409
aVtmXTMinorLineColor
p2410
aVtmXTMinorOn
p2411
aVtmXTMinorOutwardLengthF
p2412
aVtmXTMinorPerMajor
p2413
aVtmXTMinorThicknessF
p2414
aVtmXTMinorValues
p2415
aVtmXTMode
p2416
aVtmXTOn
p2417
aVtmXTPrecision
p2418
aVtmXTStyle
p2419
aVtmXTTickEndF
p2420
aVtmXTTickSpacingF
p2421
aVtmXTTickStartF
p2422
aVtmXTValues
p2423
aVtmXUseBottom
p2424
aVtmYLAutoPrecision
p2425
aVtmYLBorderOn
p2426
aVtmYLDataBottomF
p2427
aVtmYLDataTopF
p2428
aVtmYLFormat
p2429
aVtmYLIrrTensionF
p2430
aVtmYLIrregularPoints
p2431
aVtmYLLabelAngleF
p2432
aVtmYLLabelConstantSpacingF
p2433
aVtmYLLabelDeltaF
p2434
aVtmYLLabelDirection
p2435
aVtmYLLabelFont
p2436
aVtmYLLabelFontAspectF
p2437
aVtmYLLabelFontColor
p2438
aVtmYLLabelFontHeightF
p2439
aVtmYLLabelFontQuality
p2440
aVtmYLLabelFontThicknessF
p2441
aVtmYLLabelFuncCode
p2442
aVtmYLLabelJust
p2443
aVtmYLLabelStride
p2444
aVtmYLLabels
p2445
aVtmYLLabelsOn
p2446
aVtmYLMajorLengthF
p2447
aVtmYLMajorLineColor
p2448
aVtmYLMajorOutwardLengthF
p2449
aVtmYLMajorThicknessF
p2450
aVtmYLMaxLabelLenF
p2451
aVtmYLMaxTicks
p2452
aVtmYLMinLabelSpacingF
p2453
aVtmYLMinorLengthF
p2454
aVtmYLMinorLineColor
p2455
aVtmYLMinorOn
p2456
aVtmYLMinorOutwardLengthF
p2457
aVtmYLMinorPerMajor
p2458
aVtmYLMinorThicknessF
p2459
aVtmYLMinorValues
p2460
aVtmYLMode
p2461
aVtmYLOn
p2462
aVtmYLPrecision
p2463
aVtmYLStyle
p2464
aVtmYLTickEndF
p2465
aVtmYLTickSpacingF
p2466
aVtmYLTickStartF
p2467
aVtmYLValues
p2468
aVtmYMajorGrid
p2469
aVtmYMajorGridLineColor
p2470
aVtmYMajorGridLineDashPattern
p2471
aVtmYMajorGridThicknessF
p2472
aVtmYMinorGrid
p2473
aVtmYMinorGridLineColor
p2474
aVtmYMinorGridLineDashPattern
p2475
aVtmYMinorGridThicknessF
p2476
aVtmYRAutoPrecision
p2477
aVtmYRBorderOn
p2478
aVtmYRDataBottomF
p2479
aVtmYRDataTopF
p2480
aVtmYRFormat
p2481
aVtmYRIrrTensionF
p2482
aVtmYRIrregularPoints
p2483
aVtmYRLabelAngleF
p2484
aVtmYRLabelConstantSpacingF
p2485
aVtmYRLabelDeltaF
p2486
aVtmYRLabelDirection
p2487
aVtmYRLabelFont
p2488
aVtmYRLabelFontAspectF
p2489
aVtmYRLabelFontColor
p2490
aVtmYRLabelFontHeightF
p2491
aVtmYRLabelFontQuality
p2492
aVtmYRLabelFontThicknessF
p2493
aVtmYRLabelFuncCode
p2494
aVtmYRLabelJust
p2495
aVtmYRLabelStride
p2496
aVtmYRLabels
p2497
aVtmYRLabelsOn
p2498
aVtmYRMajorLengthF
p2499
aVtmYRMajorLineColor
p2500
aVtmYRMajorOutwardLengthF
p2501
aVtmYRMajorThicknessF
p2502
aVtmYRMaxLabelLenF
p2503
aVtmYRMaxTicks
p2504
aVtmYRMinLabelSpacingF
p2505
aVtmYRMinorLengthF
p2506
aVtmYRMinorLineColor
p2507
aVtmYRMinorOn
p2508
aVtmYRMinorOutwardLengthF
p2509
aVtmYRMinorPerMajor
p2510
aVtmYRMinorThicknessF
p2511
aVtmYRMinorValues
p2512
aVtmYRMode
p2513
aVtmYROn
p2514
aVtmYRPrecision
p2515
aVtmYRStyle
p2516
aVtmYRTickEndF
p2517
aVtmYRTickSpacingF
p2518
aVtmYRTickStartF
p2519
aVtmYRValues
p2520
aVtmYUseLeft
p2521
aVtrGridType
p2522
aVtrLineInterpolationOn
p2523
aVtrXAxisType
p2524
aVtrXCoordPoints
p2525
aVtrXInterPoints
p2526
aVtrXLog
p2527
aVtrXMaxF
p2528
aVtrXMinF
p2529
aVtrXReverse
p2530
aVtrXSamples
p2531
aVtrXTensionF
p2532
aVtrYAxisType
p2533
aVtrYCoordPoints
p2534
aVtrYInterPoints
p2535
aVtrYLog
p2536
aVtrYMaxF
p2537
aVtrYMinF
p2538
aVtrYReverse
p2539
aVtrYSamples
p2540
aVtrYTensionF
p2541
aVtxAngleF
p2542
aVtxBackgroundFillColor
p2543
aVtxConstantSpacingF
p2544
aVtxDirection
p2545
aVtxFont
p2546
aVtxFontAspectF
p2547
aVtxFontColor
p2548
aVtxFontHeightF
p2549
aVtxFontOpacityF
p2550
aVtxFontQuality
p2551
aVtxFontThicknessF
p2552
aVtxFuncCode
p2553
aVtxJust
p2554
aVtxPerimColor
p2555
aVtxPerimDashLengthF
p2556
aVtxPerimDashPattern
p2557
aVtxPerimOn
p2558
aVtxPerimSpaceF
p2559
aVtxPerimThicknessF
p2560
aVtxPosXF
p2561
aVtxPosYF
p2562
aVtxString
p2563
aVvcExplicitLabelBarLabelsOn
p2564
aVvcFillArrowEdgeColor
p2565
aVvcFillArrowEdgeThicknessF
p2566
aVvcFillArrowFillColor
p2567
aVvcFillArrowHeadInteriorXF
p2568
aVvcFillArrowHeadMinFracXF
p2569
aVvcFillArrowHeadMinFracYF
p2570
aVvcFillArrowHeadXF
p2571
aVvcFillArrowHeadYF
p2572
aVvcFillArrowMinFracWidthF
p2573
aVvcFillArrowWidthF
p2574
aVvcFillArrowsOn
p2575
aVvcFillOverEdge
p2576
aVvcGlyphOpacityF
p2577
aVvcGlyphStyle
p2578
aVvcLabelBarEndLabelsOn
p2579
aVvcLabelFontColor
p2580
aVvcLabelFontHeightF
p2581
aVvcLabelsOn
p2582
aVvcLabelsUseVectorColor
p2583
aVvcLevelColors
p2584
aVvcLevelCount
p2585
aVvcLevelPalette
p2586
aVvcLevelSelectionMode
p2587
aVvcLevelSpacingF
p2588
aVvcLevels
p2589
aVvcLineArrowColor
p2590
aVvcLineArrowHeadMaxSizeF
p2591
aVvcLineArrowHeadMinSizeF
p2592
aVvcLineArrowThicknessF
p2593
aVvcMagnitudeFormat
p2594
aVvcMagnitudeScaleFactorF
p2595
aVvcMagnitudeScaleValueF
p2596
aVvcMagnitudeScalingMode
p2597
aVvcMapDirection
p2598
aVvcMaxLevelCount
p2599
aVvcMaxLevelValF
p2600
aVvcMaxMagnitudeF
p2601
aVvcMinAnnoAngleF
p2602
aVvcMinAnnoArrowAngleF
p2603
aVvcMinAnnoArrowEdgeColor
p2604
aVvcMinAnnoArrowFillColor
p2605
aVvcMinAnnoArrowLineColor
p2606
aVvcMinAnnoArrowMinOffsetF
p2607
aVvcMinAnnoArrowSpaceF
p2608
aVvcMinAnnoArrowUseVecColor
p2609
aVvcMinAnnoBackgroundColor
p2610
aVvcMinAnnoConstantSpacingF
p2611
aVvcMinAnnoExplicitMagnitudeF
p2612
aVvcMinAnnoFont
p2613
aVvcMinAnnoFontAspectF
p2614
aVvcMinAnnoFontColor
p2615
aVvcMinAnnoFontHeightF
p2616
aVvcMinAnnoFontQuality
p2617
aVvcMinAnnoFontThicknessF
p2618
aVvcMinAnnoFuncCode
p2619
aVvcMinAnnoJust
p2620
aVvcMinAnnoOn
p2621
aVvcMinAnnoOrientation
p2622
aVvcMinAnnoOrthogonalPosF
p2623
aVvcMinAnnoParallelPosF
p2624
aVvcMinAnnoPerimColor
p2625
aVvcMinAnnoPerimOn
p2626
aVvcMinAnnoPerimSpaceF
p2627
aVvcMinAnnoPerimThicknessF
p2628
aVvcMinAnnoSide
p2629
aVvcMinAnnoString1
p2630
aVvcMinAnnoString1On
p2631
aVvcMinAnnoString2
p2632
aVvcMinAnnoString2On
p2633
aVvcMinAnnoTextDirection
p2634
aVvcMinAnnoZone
p2635
aVvcMinDistanceF
p2636
aVvcMinFracLengthF
p2637
aVvcMinLevelValF
p2638
aVvcMinMagnitudeF
p2639
aVvcMonoFillArrowEdgeColor
p2640
aVvcMonoFillArrowFillColor
p2641
aVvcMonoLineArrowColor
p2642
aVvcMonoWindBarbColor
p2643
aVvcNoDataLabelOn
p2644
aVvcNoDataLabelString
p2645
aVvcPositionMode
p2646
aVvcRefAnnoAngleF
p2647
aVvcRefAnnoArrowAngleF
p2648
aVvcRefAnnoArrowEdgeColor
p2649
aVvcRefAnnoArrowFillColor
p2650
aVvcRefAnnoArrowLineColor
p2651
aVvcRefAnnoArrowMinOffsetF
p2652
aVvcRefAnnoArrowSpaceF
p2653
aVvcRefAnnoArrowUseVecColor
p2654
aVvcRefAnnoBackgroundColor
p2655
aVvcRefAnnoConstantSpacingF
p2656
aVvcRefAnnoExplicitMagnitudeF
p2657
aVvcRefAnnoFont
p2658
aVvcRefAnnoFontAspectF
p2659
aVvcRefAnnoFontColor
p2660
aVvcRefAnnoFontHeightF
p2661
aVvcRefAnnoFontQuality
p2662
aVvcRefAnnoFontThicknessF
p2663
aVvcRefAnnoFuncCode
p2664
aVvcRefAnnoJust
p2665
aVvcRefAnnoOn
p2666
aVvcRefAnnoOrientation
p2667
aVvcRefAnnoOrthogonalPosF
p2668
aVvcRefAnnoParallelPosF
p2669
aVvcRefAnnoPerimColor
p2670
aVvcRefAnnoPerimOn
p2671
aVvcRefAnnoPerimSpaceF
p2672
aVvcRefAnnoPerimThicknessF
p2673
aVvcRefAnnoSide
p2674
aVvcRefAnnoString1
p2675
aVvcRefAnnoString1On
p2676
aVvcRefAnnoString2
p2677
aVvcRefAnnoString2On
p2678
aVvcRefAnnoTextDirection
p2679
aVvcRefAnnoZone
p2680
aVvcRefLengthF
p2681
aVvcRefMagnitudeF
p2682
aVvcScalarFieldData
p2683
aVvcScalarMissingValColor
p2684
aVvcScalarValueFormat
p2685
aVvcScalarValueScaleFactorF
p2686
aVvcScalarValueScaleValueF
p2687
aVvcScalarValueScalingMode
p2688
aVvcSpanLevelPalette
p2689
aVvcUseRefAnnoRes
p2690
aVvcUseScalarArray
p2691
aVvcVectorDrawOrder
p2692
aVvcVectorFieldData
p2693
aVvcWindBarbCalmCircleSizeF
p2694
aVvcWindBarbColor
p2695
aVvcWindBarbLineThicknessF
p2696
aVvcWindBarbScaleFactorF
p2697
aVvcWindBarbTickAngleF
p2698
aVvcWindBarbTickLengthF
p2699
aVvcWindBarbTickSpacingF
p2700
aVvcZeroFLabelAngleF
p2701
aVvcZeroFLabelBackgroundColor
p2702
aVvcZeroFLabelConstantSpacingF
p2703
aVvcZeroFLabelFont
p2704
aVvcZeroFLabelFontAspectF
p2705
aVvcZeroFLabelFontColor
p2706
aVvcZeroFLabelFontHeightF
p2707
aVvcZeroFLabelFontQuality
p2708
aVvcZeroFLabelFontThicknessF
p2709
aVvcZeroFLabelFuncCode
p2710
aVvcZeroFLabelJust
p2711
aVvcZeroFLabelOn
p2712
aVvcZeroFLabelOrthogonalPosF
p2713
aVvcZeroFLabelParallelPosF
p2714
aVvcZeroFLabelPerimColor
p2715
aVvcZeroFLabelPerimOn
p2716
aVvcZeroFLabelPerimSpaceF
p2717
aVvcZeroFLabelPerimThicknessF
p2718
aVvcZeroFLabelSide
p2719
aVvcZeroFLabelString
p2720
aVvcZeroFLabelTextDirection
p2721
aVvcZeroFLabelZone
p2722
aVvfCopyData
p2723
aVvfDataArray
p2724
aVvfExchangeDimensions
p2725
aVvfExchangeUVData
p2726
aVvfMagMaxV
p2727
aVvfMagMinV
p2728
aVvfMissingUValueV
p2729
aVvfMissingVValueV
p2730
aVvfPolarData
p2731
aVvfSingleMissingValue
p2732
aVvfUDataArray
p2733
aVvfUMaxV
p2734
aVvfUMinV
p2735
aVvfVDataArray
p2736
aVvfVMaxV
p2737
aVvfVMinV
p2738
aVvfXArray
p2739
aVvfXCActualEndF
p2740
aVvfXCActualStartF
p2741
aVvfXCEndIndex
p2742
aVvfXCEndSubsetV
p2743
aVvfXCEndV
p2744
aVvfXCStartIndex
p2745
aVvfXCStartSubsetV
p2746
aVvfXCStartV
p2747
aVvfXCStride
p2748
aVvfYArray
p2749
aVvfYCActualEndF
p2750
aVvfYCActualStartF
p2751
aVvfYCEndIndex
p2752
aVvfYCEndSubsetV
p2753
aVvfYCEndV
p2754
aVvfYCStartIndex
p2755
aVvfYCStartSubsetV
p2756
aVvfYCStartV
p2757
aVvfYCStride
p2758
aVvpAnnoManagerId
p2759
aVvpClipOn
p2760
aVvpHeightF
p2761
aVvpKeepAspect
p2762
aVvpOn
p2763
aVvpUseSegments
p2764
aVvpWidthF
p2765
aVvpXF
p2766
aVvpYF
p2767
aVwkAntiAlias
p2768
aVwkAntiAlias
p2769
aVwkAntiAlias
p2770
aVwkBackgroundColor
p2771
aVwkBackgroundOpacityF
p2772
aVwkBackgroundOpacityF
p2773
aVwkBackgroundOpacityF
p2774
aVwkColorMapLen
p2775
aVwkColorMap
p2776
aVwkColorModel
p2777
aVwkColorModel
p2778
aVwkDashTableLength
p2779
aVwkDefGraphicStyleId
p2780
aVwkDeviceLowerX
p2781
aVwkDeviceLowerX
p2782
aVwkDeviceLowerX
p2783
aVwkDeviceLowerY
p2784
aVwkDeviceLowerY
p2785
aVwkDeviceLowerY
p2786
aVwkDeviceUpperX
p2787
aVwkDeviceUpperX
p2788
aVwkDeviceUpperX
p2789
aVwkDeviceUpperY
p2790
aVwkDeviceUpperY
p2791
aVwkDeviceUpperY
p2792
aVwkFileName
p2793
aVwkFileName
p2794
aVwkFillTableLength
p2795
aVwkForegroundColor
p2796
aVwkFormat
p2797
aVwkFormat
p2798
aVwkFullBackground
p2799
aVwkFullBackground
p2800
aVwkGksWorkId
p2801
aVwkHeight
p2802
aVwkHeight
p2803
aVwkMarkerTableLength
p2804
aVwkMetaName
p2805
aVwkOrientation
p2806
aVwkOrientation
p2807
aVwkPDFFileName
p2808
aVwkPDFFormat
p2809
aVwkPDFResolution
p2810
aVwkPSFileName
p2811
aVwkPSFormat
p2812
aVwkPSResolution
p2813
aVwkPaperHeightF
p2814
aVwkPaperHeightF
p2815
aVwkPaperHeightF
p2816
aVwkPaperSize
p2817
aVwkPaperSize
p2818
aVwkPaperSize
p2819
aVwkPaperWidthF
p2820
aVwkPaperWidthF
p2821
aVwkPaperWidthF
p2822
aVwkPause
p2823
aVwkTopLevelViews
p2824
aVwkViews
p2825
aVwkVisualType
p2826
aVwkVisualType
p2827
aVwkWidth
p2828
aVwkWidth
p2829
aVwkWindowId
p2830
aVwkXColorMode
p2831
aVwsCurrentSize
p2832
aVwsMaximumSize
p2833
aVwsThresholdSize
p2834
aVxyComputeXMax
p2835
aVxyComputeXMin
p2836
aVxyComputeYMax
p2837
aVxyComputeYMin
p2838
aVxyCoordData
p2839
aVxyCoordDataSpec
p2840
aVxyCurveDrawOrder
p2841
aVxyDashPattern
p2842
aVxyDashPatterns
p2843
aVxyExplicitLabels
p2844
aVxyExplicitLegendLabels
p2845
aVxyLabelMode
p2846
aVxyLineColor
p2847
aVxyLineColors
p2848
aVxyLineDashSegLenF
p2849
aVxyLineLabelConstantSpacingF
p2850
aVxyLineLabelFont
p2851
aVxyLineLabelFontAspectF
p2852
aVxyLineLabelFontColor
p2853
aVxyLineLabelFontColors
p2854
aVxyLineLabelFontHeightF
p2855
aVxyLineLabelFontQuality
p2856
aVxyLineLabelFontThicknessF
p2857
aVxyLineLabelFuncCode
p2858
aVxyLineThicknessF
p2859
aVxyLineThicknesses
p2860
aVxyMarkLineMode
p2861
aVxyMarkLineModes
p2862
aVxyMarker
p2863
aVxyMarkerColor
p2864
aVxyMarkerColors
p2865
aVxyMarkerSizeF
p2866
aVxyMarkerSizes
p2867
aVxyMarkerThicknessF
p2868
aVxyMarkerThicknesses
p2869
aVxyMarkers
p2870
aVxyMonoDashPattern
p2871
aVxyMonoLineColor
p2872
aVxyMonoLineLabelFontColor
p2873
aVxyMonoLineThickness
p2874
aVxyMonoMarkLineMode
p2875
aVxyMonoMarker
p2876
aVxyMonoMarkerColor
p2877
aVxyMonoMarkerSize
p2878
aVxyMonoMarkerThickness
p2879
aVxyXIrrTensionF
p2880
aVxyXIrregularPoints
p2881
aVxyXStyle
p2882
aVxyYIrrTensionF
p2883
aVxyYIrregularPoints
p2884
aVxyYStyle
p2885
aasS'gsn'
p2886
(lp2887
S'ncl_key_gsn'
p2888
aS'Ncl gsn csm plot templates and special gsn functions.'
p2889
aS'http://www.ncl.ucar.edu//Document/Graphics/Interfaces/'
p2890
a(lp2891
Vgsn_define_colormap
p2892
aVgsn_draw_colormap
p2893
aVgsn_draw_named_colors
p2894
aVgsn_merge_colormaps
p2895
aVgsn_retrieve_colormap
p2896
aVgsn_reverse_colormap
p2897
aVgsn_contour
p2898
aVgsn_contour_map
p2899
aVgsn_csm_contour
p2900
aVgsn_csm_hov
p2901
aVgsn_csm_time_lat
p2902
aVgsn_csm_lat_time
p2903
aVgsn_csm_pres_hgt
p2904
aVgsn_csm_contour_map
p2905
aVgsn_csm_contour_map_ce
p2906
aVgsn_csm_contour_map_polar
p2907
aVgsn_csm_contour_map_overlay
p2908
aVgsn_contour_shade
p2909
aVgsn_map
p2910
aVgsn_csm_map
p2911
aVgsn_csm_map_ce
p2912
aVgsn_csm_map_polar
p2913
aVgsn_polygon
p2914
aVgsn_add_polygon
p2915
aVgsn_polygon_ndc
p2916
aVgsn_polyline
p2917
aVgsn_add_polyline
p2918
aVgsn_polyline_ndc
p2919
aVgsn_polymarker
p2920
aVgsn_add_polymarker
p2921
aVgsn_polymarker_ndc
p2922
aVgsn_text
p2923
aVgsn_add_text
p2924
aVgsn_text_ndc
p2925
aVgsn_create_text
p2926
aVgsn_coordinates
p2927
aVgsn_add_shapefile_polygons
p2928
aVgsn_add_shapefile_polylines
p2929
aVgsn_add_shapefile_polymarkers
p2930
aVgsn_add_annotation
p2931
aVgsn_attach_plots
p2932
aVgsn_blank_plot
p2933
aVgsn_csm_blank_plot
p2934
aVgsn_create_labelbar
p2935
aVgsn_create_legend
p2936
aVgsn_create_text
p2937
aVgsn_histogram
p2938
aVgsn_labelbar_ndc
p2939
aVgsn_legend_ndc
p2940
aVgsn_open_wks
p2941
aVgsn_panel
p2942
aVgsn_table
p2943
aVreset_device_coordinates
p2944
aVgsn_streamline
p2945
aVgsn_streamline_map
p2946
aVgsn_streamline_scalar
p2947
aVgsn_streamline_scalar_map
p2948
aVgsn_csm_streamline
p2949
aVgsn_csm_streamline_map
p2950
aVgsn_csm_streamline_map_ce
p2951
aVgsn_csm_streamline_map_polar
p2952
aVgsn_csm_streamline_contour_map
p2953
aVgsn_csm_streamline_contour_map_ce
p2954
aVgsn_csm_streamline_contour_map_polar
p2955
aVgsn_csm_streamline_scalar
p2956
aVgsn_csm_streamline_scalar_map
p2957
aVgsn_csm_streamline_scalar_map_ce
p2958
aVgsn_csm_streamline_scalar_map_polar
p2959
aVgsn_csm_pres_hgt_streamline
p2960
aVgsn_vector
p2961
aVgsn_vector_map
p2962
aVgsn_vector_scalar
p2963
aVgsn_vector_scalar_map
p2964
aVgsn_csm_vector
p2965
aVgsn_csm_vector_map
p2966
aVgsn_csm_vector_map_ce
p2967
aVgsn_csm_vector_map_polar
p2968
aVgsn_csm_vector_scalar
p2969
aVgsn_csm_vector_scalar_map
p2970
aVgsn_csm_vector_scalar_map_ce
p2971
aVgsn_csm_vector_scalar_map_polar
p2972
aVgsn_csm_pres_hgt_vector
p2973
aVgsn_xy
p2974
aVgsn_y
p2975
aVgsn_csm_xy
p2976
aVgsn_csm_y
p2977
aVgsn_csm_xy2
p2978
aVgsn_csm_x2y
p2979
aVgsn_csm_x2y2
p2980
aVgsn_csm_xy3
p2981
aas.