(dp0
S'wrfcontrib'
p1
(lp2
S'ncl_key_wrfcontrib'
p3
aS'Ncl wrf_contributed functions.'
p4
aS'http://www.ncl.ucar.edu//Document/Functions/WRF_contributed/'
p5
a(lp6
Vwrf_mapres_c
p7
aVwrf_times_c
p8
aasS'shea'
p9
(lp10
S'ncl_key_shea'
p11
aS'Ncl shea_util functions.'
p12
aS'http://www.ncl.ucar.edu//Document/Functions/Shea_util/'
p13
a(lp14
Vadd90LatX
p15
aVadd90LatY
p16
aVboxplot
p17
aVColorNegDashZeroPosContour
p18
aVColorShadeLeGeContour
p19
aVdrawNDCGrid
p20
aVinfoTimeStamp
p21
aVlandsea_mask
p22
aVmsgValOutline
p23
aVpie_chart
p24
aVplt_pdfxy
p25
aVsetColorContourClear
p26
aVShadeCOI
p27
aVShadeGeLeContour
p28
aVShadeGtContour
p29
aVShadeLtContour
p30
aVShadeLtGtContour
p31
aVsimple_legend
p32
aVspecx_ci
p33
aasS'diag'
p34
(lp35
S'ncl_key_diag'
p36
aS'Ncl diagnostics functions.'
p37
aS'http://www.ncl.ucar.edu//Document/Functions/Diagnostics/'
p38
a(lp39
Vband_pass_area_time
p40
aVband_pass_area_time_plot
p41
aVband_pass_hovmueller
p42
aVband_pass_hovmueller_plot
p43
aVband_pass_latlon_time
p44
aVband_pass_latlon_time_plot
p45
aVdecomposeSymAsym
p46
aVmjo_cross
p47
aVmjo_cross_plot
p48
aVmjo_phase_background
p49
aVmjo_space_time_cross
p50
aVmjo_spectra
p51
aVmjo_spectra_season
p52
aVmjo_wavenum_freq_season
p53
aVmjo_wavenum_freq_season_plot
p54
aVmjo_xcor_lag_ovly
p55
aVmjo_xcor_lag_ovly_panel
p56
aVmjo_xcor_lag_season
p57
aVresolveWavesHayashi
p58
aVwkSpaceTime
p59
aVwkSpaceTime_cam
p60
aasS'operators'
p61
(lp62
S'ncl_key_operators'
p63
aS'Operators in NCL.'
p64
aS'No specific url.'
p65
a(lp66
S'(/'
p67
aS'/)'
p68
aS'\\\\'
p69
aS'.eq.'
p70
aS'.ne.'
p71
aS'.lt.'
p72
aS'.le.'
p73
aS'.gt.'
p74
aS'.ge.'
p75
aS'.and.'
p76
aS'.or.'
p77
aS'.not.'
p78
aS'.xor.'
p79
aasS'windrose'
p80
(lp81
S'ncl_key_windrose'
p82
aS'Ncl wind_rose functions.'
p83
aS'http://www.ncl.ucar.edu//Document/Functions/Wind_rose/'
p84
a(lp85
VWindRoseBasic
p86
aVWindRoseColor
p87
aVWindRoseThickLine
p88
aasS'pop'
p89
(lp90
S'ncl_key_pop'
p91
aS'Ncl pop_remap functions.'
p92
aS'http://www.ncl.ucar.edu//Document/Functions/Pop_remap/'
p93
a(lp94
VPopLatLon
p95
aVPopLatLonV
p96
aasS'wrfarw'
p97
(lp98
S'ncl_key_wrfarw'
p99
aS'Ncl wrf_arw functions.'
p100
aS'http://www.ncl.ucar.edu//Document/Functions/WRF_arw/'
p101
a(lp102
Vwrf_contour
p103
aVwrf_map
p104
aVwrf_map_overlay
p105
aVwrf_map_overlays
p106
aVwrf_map_resources
p107
aVwrf_map_zoom
p108
aVwrf_overlay
p109
aVwrf_overlays
p110
aVwrf_user_getvar
p111
aVwrf_user_ij_to_ll
p112
aVwrf_user_intrp2d
p113
aVwrf_user_intrp3d
p114
aVwrf_user_latlon_to_ij
p115
aVwrf_user_list_times
p116
aVwrf_user_ll_to_ij
p117
aVwrf_user_unstagger
p118
aVwrf_user_vert_interp
p119
aVwrf_vector
p120
aasS'contrib'
p121
(lp122
S'ncl_key_contrib'
p123
aS'Ncl contributed functions.'
p124
aS'http://www.ncl.ucar.edu//Document/Functions/Contributed/'
p125
a(lp126
Vaddfiles_GetVar
p127
aVadvect_variable
p128
aValbedo_ccm
p129
aVarea_conserve_remap_Wrap
p130
aVarea_hi2lores_Wrap
p131
aVarray_append_record
p132
aVassignFillValue
p133
aVbrunt_vaisala
p134
aVbrunt_vaisala_atm
p135
aVbyte2flt
p136
aVbyte2flt_hdf
p137
aVcalcDayAnomTLL
p138
aVcalcMonAnomLLLT
p139
aVcalcMonAnomLLT
p140
aVcalcMonAnomTLL
p141
aVcalcMonAnomTLLL
p142
aVcalculate_daily_values
p143
aVcalculate_monthly_values
p144
aVcalculate_segment_values
p145
aVcd_convert
p146
aVchangeCase
p147
aVchangeCaseChar
p148
aVclmDayTLL
p149
aVclmDayTLLL
p150
aVclmMon2clmDay
p151
aVclmMonLLLT
p152
aVclmMonLLT
p153
aVclmMonTLL
p154
aVclmMonTLLL
p155
aVclosest_val
p156
aVcohsq_c2p
p157
aVcohsq_p2c
p158
aVcopy_VarAtts
p159
aVcopy_VarCoords
p160
aVcopy_VarCoords_1
p161
aVcopy_VarCoords_2
p162
aVcopy_VarMeta
p163
aVcopyatt
p164
aVcoriolis_param
p165
aVcrossp3
p166
aVcshstringtolist
p167
aVcssgrid_Wrap
p168
aVdble2flt
p169
aVdecimalPlaces
p170
aVdelete_VarAtts
p171
aVdemod_cmplx
p172
aVdim_avg_n_Wrap
p173
aVdim_avg_wgt_n_Wrap
p174
aVdim_avg_wgt_Wrap
p175
aVdim_avg_Wrap
p176
aVdim_cumsum_n_Wrap
p177
aVdim_cumsum_Wrap
p178
aVdim_max_n_Wrap
p179
aVdim_maxind
p180
aVdim_min_n_Wrap
p181
aVdim_minind
p182
aVdim_rmsd_n_Wrap
p183
aVdim_rmsd_Wrap
p184
aVdim_rmvmean_n_Wrap
p185
aVdim_rmvmean_Wrap
p186
aVdim_rmvmed_n_Wrap
p187
aVdim_rmvmed_Wrap
p188
aVdim_standardize_n_Wrap
p189
aVdim_standardize_Wrap
p190
aVdim_stddev_n_Wrap
p191
aVdim_stddev_Wrap
p192
aVdim_sum_n_Wrap
p193
aVdim_sum_wgt_n_Wrap
p194
aVdim_sum_wgt_Wrap
p195
aVdim_sum_Wrap
p196
aVdim_variance_n_Wrap
p197
aVdim_variance_Wrap
p198
aVdpres_plevel_Wrap
p199
aVdtrend_leftdim
p200
aVdv2uvF_Wrap
p201
aVdv2uvG_Wrap
p202
aVeady_growth_rate
p203
aVeofcor_Wrap
p204
aVeofcov_Wrap
p205
aVeofunc_n_Wrap
p206
aVeofunc_north
p207
aVeofunc_ts_n_Wrap
p208
aVeofunc_ts_Wrap
p209
aVeofunc_varimax_reorder
p210
aVeofunc_varimax_Wrap
p211
aVeofunc_Wrap
p212
aVepflux
p213
aVepsZero
p214
aVextract_globalatts_hdf5
p215
aVf2fosh_Wrap
p216
aVf2foshv_Wrap
p217
aVf2fsh_Wrap
p218
aVf2fshv_Wrap
p219
aVf2gsh_Wrap
p220
aVf2gshv_Wrap
p221
aVfbindirSwap
p222
aVfbinseqSwap1
p223
aVfbinseqSwap2
p224
aVfire_index_haines
p225
aVflt2dble
p226
aVflt2string
p227
aVfo2fsh_Wrap
p228
aVfo2fshv_Wrap
p229
aVg2fsh_Wrap
p230
aVg2fshv_Wrap
p231
aVg2gsh_Wrap
p232
aVg2gshv_Wrap
p233
aVgenerate_sample_indices
p234
aVgenerate_unique_indices
p235
aVgenNormalDist
p236
aVget1Dindex_Collapse
p237
aVget1Dindex_Exclude
p238
aVget_d2r
p239
aVget_file_suffix
p240
aVget_pi
p241
aVget_r2d
p242
aVGetFillColor
p243
aVGetFillColorIndex
p244
aVgetFillValue
p245
aVgetind_latlon2d
p246
aVgetVarDimNames
p247
aVgetVarFillValue
p248
aVgrad_latlon_cfd
p249
aVgrib_stime2itime
p250
aVhyi2hyo_Wrap
p251
aVilapsF_Wrap
p252
aVilapsG_Wrap
p253
aVind_nearest_coord
p254
aVindStrSubset
p255
aVint2dble
p256
aVint2flt
p257
aVint2p_n_Wrap
p258
aVint2p_Wrap
p259
aVisMonotonic
p260
aVisStrSubset
p261
aVlatent_heat_water
p262
aVlatGau
p263
aVlatGauWgt
p264
aVlatGlobeF
p265
aVlatGlobeFo
p266
aVlatRegWgt
p267
aVlinint1_n_Wrap
p268
aVlinint1_Wrap
p269
aVlinint2_points_Wrap
p270
aVlinint2_Wrap
p271
aVlocal_max_1d
p272
aVlocal_min_1d
p273
aVlonFlip
p274
aVlonGlobeF
p275
aVlonGlobeFo
p276
aVlonPivot
p277
aVmerge_levels_sfc
p278
aVmod
p279
aVmonth_to_annual
p280
aVmonth_to_annual_weighted
p281
aVmonth_to_season
p282
aVmonth_to_season12
p283
aVmonth_to_seasonN
p284
aVmonthly_total_to_daily_mean
p285
aVnameDim
p286
aVnatgrid_Wrap
p287
aVNewCosWeight
p288
aVniceLatLon2D
p289
aVNormCosWgtGlobe
p290
aVnumAsciiCol
p291
aVnumAsciiRow
p292
aVnumeric2int
p293
aVobj_anal_ic_deprecated
p294
aVobj_anal_ic_Wrap
p295
aVomega_ccm_driver
p296
aVomega_to_w
p297
aVoneDtostring
p298
aVpack_values
p299
aVparse_globalatts_hdf5
p300
aVpattern_cor
p301
aVpdfx
p302
aVpdfxy
p303
aVpdfxy_conform
p304
aVpot_temp
p305
aVpot_vort_hybrid
p306
aVpot_vort_isobaric
p307
aVpres2hybrid_Wrap
p308
aVprint_clock
p309
aVprintMinMax
p310
aVquadroots
p311
aVrcm2points_Wrap
p312
aVrcm2rgrid_Wrap
p313
aVreadAsciiHead
p314
aVreadAsciiTable
p315
aVreg_multlin_stats
p316
aVregion_ind
p317
aVregline_stats
p318
aVrelhum_ttd
p319
aVreplaceSingleChar
p320
aVRGBtoCmap
p321
aVrgrid2rcm_Wrap
p322
aVrho_mwjf
p323
aVrigrad_bruntv_atm
p324
aVrm_single_dims
p325
aVrmAnnCycle1D
p326
aVrmInsufData
p327
aVrmMonAnnCycLLLT
p328
aVrmMonAnnCycLLT
p329
aVrmMonAnnCycTLL
p330
aVrunave_n_Wrap
p331
aVrunave_Wrap
p332
aVsatvpr_water_bolton
p333
aVsatvpr_water_stipanuk
p334
aVshort2flt
p335
aVshort2flt_hdf
p336
aVshsgc_R42_Wrap
p337
aVsign_f90
p338
aVsign_matlab
p339
aVsmth9_Wrap
p340
aVsmthClmDayTLL
p341
aVsmthClmDayTLLL
p342
aVSqrtCosWeight
p343
aVstat_dispersion
p344
aVstatic_stability
p345
aVstdMonLLLT
p346
aVstdMonLLT
p347
aVstdMonTLL
p348
aVstdMonTLLL
p349
aVsymMinMaxPlt
p350
aVtable_attach_columns
p351
aVtable_attach_rows
p352
aVtime_reassign
p353
aVtime_reassign_cv2var
p354
aVtime_to_newtime
p355
aVtranspose
p356
aVtriple2grid_Wrap
p357
aVut_convert
p358
aVuv2dvF_Wrap
p359
aVuv2dvG_Wrap
p360
aVuv2vrF_Wrap
p361
aVuv2vrG_Wrap
p362
aVvapor_pres_rh
p363
aVvenn2_difference
p364
aVvenn2_intersection
p365
aVvenn2_union
p366
aVvr2uvF_Wrap
p367
aVvr2uvG_Wrap
p368
aVw_to_omega
p369
aVwallClockElapseTime
p370
aVwave_number_spc
p371
aVwetbulb_stull
p372
aVwgt_areaave_Wrap
p373
aVwgt_runave_leftdim
p374
aVwgt_runave_n_Wrap
p375
aVwgt_runave_Wrap
p376
aVwgt_vertical_n
p377
aVwind_component
p378
aVwind_direction
p379
aVwind_speed
p380
aVwind_stats
p381
aVyyyyddd_to_yyyymmdd
p382
aVyyyymm_time
p383
aVyyyymm_to_yyyyfrac
p384
aVyyyymmdd_time
p385
aVyyyymmdd_to_yyyyddd
p386
aVyyyymmdd_to_yyyyfrac
p387
aVyyyymmddhh_time
p388
aVyyyymmddhh_to_yyyyfrac
p389
aVzonal_mpsi_Wrap
p390
aVzonalAve
p391
aasS'builtin'
p392
(lp393
S'ncl_key_builtin'
p394
aS'Ncl built-in functions.'
p395
aS'http://www.ncl.ucar.edu//Document/Functions/Built-in/'
p396
a(lp397
Vabs
p398
aVacos
p399
aVaddfile
p400
aVaddfiles
p401
aVall
p402
aVangmom_atm
p403
aVany
p404
aVarea_conserve_remap
p405
aVarea_hi2lores
p406
aVarea_poly_sphere
p407
aVasciiread
p408
aVasciiwrite
p409
aVasin
p410
aVatan
p411
aVatan2
p412
aVattsetvalues
p413
aVavg
p414
aVbetainc
p415
aVbin_avg
p416
aVbin_sum
p417
aVbw_bandpass_filter
p418
aVcancor
p419
aVcbinread
p420
aVcbinwrite
p421
aVcd_calendar
p422
aVcd_inv_calendar
p423
aVcdfbin_p
p424
aVcdfbin_pr
p425
aVcdfbin_s
p426
aVcdfbin_xn
p427
aVcdfchi_p
p428
aVcdfchi_x
p429
aVcdfgam_p
p430
aVcdfgam_x
p431
aVcdfnor_p
p432
aVcdfnor_x
p433
aVcdft_p
p434
aVcdft_t
p435
aVceil
p436
aVcenter_finite_diff
p437
aVcenter_finite_diff_n
p438
aVcfftb
p439
aVcfftf
p440
aVcfftf_frq_reorder
p441
aVcharactertodouble
p442
aVcharactertofloat
p443
aVcharactertointeger
p444
aVcharactertolong
p445
aVcharactertoshort
p446
aVcharactertostring
p447
aVchartodouble
p448
aVchartofloat
p449
aVchartoint
p450
aVchartointeger
p451
aVchartolong
p452
aVchartoshort
p453
aVchartostring
p454
aVchiinv
p455
aVcla_sq
p456
aVclear
p457
aVcolor_index_to_rgba
p458
aVconform
p459
aVconform_dims
p460
aVcos
p461
aVcosh
p462
aVcount_unique_values
p463
aVcount_unique_values_n
p464
aVcovcorm
p465
aVcovcorm_xy
p466
aVcraybinnumrec
p467
aVcraybinrecread
p468
aVcreate_graphic
p469
aVcsa1
p470
aVcsa1d
p471
aVcsa1s
p472
aVcsa1x
p473
aVcsa1xd
p474
aVcsa1xs
p475
aVcsa2
p476
aVcsa2d
p477
aVcsa2l
p478
aVcsa2ld
p479
aVcsa2ls
p480
aVcsa2lx
p481
aVcsa2lxd
p482
aVcsa2lxs
p483
aVcsa2s
p484
aVcsa2x
p485
aVcsa2xd
p486
aVcsa2xs
p487
aVcsa3
p488
aVcsa3d
p489
aVcsa3l
p490
aVcsa3ld
p491
aVcsa3ls
p492
aVcsa3lx
p493
aVcsa3lxd
p494
aVcsa3lxs
p495
aVcsa3s
p496
aVcsa3x
p497
aVcsa3xd
p498
aVcsa3xs
p499
aVcsc2s
p500
aVcsgetp
p501
aVcss2c
p502
aVcssetp
p503
aVcssgrid
p504
aVcsstri
p505
aVcsvoro
p506
aVcumsum
p507
aVcz2ccm
p508
aVdatatondc
p509
aVday_of_week
p510
aVday_of_year
p511
aVdays_in_month
p512
aVdefault_fillvalue
p513
aVdelete
p514
aVdepth_to_pres
p515
aVdestroy
p516
aVdeterminant
p517
aVdewtemp_trh
p518
aVdgeevx_lapack
p519
aVdim_acumrun_n
p520
aVdim_avg
p521
aVdim_avg_n
p522
aVdim_avg_wgt
p523
aVdim_avg_wgt_n
p524
aVdim_cumsum
p525
aVdim_cumsum_n
p526
aVdim_gamfit_n
p527
aVdim_gbits
p528
aVdim_max
p529
aVdim_max_n
p530
aVdim_median
p531
aVdim_median_n
p532
aVdim_min
p533
aVdim_min_n
p534
aVdim_num
p535
aVdim_num_n
p536
aVdim_numrun_n
p537
aVdim_pqsort
p538
aVdim_pqsort_n
p539
aVdim_product
p540
aVdim_product_n
p541
aVdim_rmsd
p542
aVdim_rmsd_n
p543
aVdim_rmvmean
p544
aVdim_rmvmean_n
p545
aVdim_rmvmed
p546
aVdim_rmvmed_n
p547
aVdim_spi_n
p548
aVdim_standardize
p549
aVdim_standardize_n
p550
aVdim_stat4
p551
aVdim_stat4_n
p552
aVdim_stddev
p553
aVdim_stddev_n
p554
aVdim_sum
p555
aVdim_sum_n
p556
aVdim_sum_wgt
p557
aVdim_sum_wgt_n
p558
aVdim_variance
p559
aVdim_variance_n
p560
aVdimsizes
p561
aVdoubletobyte
p562
aVdoubletochar
p563
aVdoubletocharacter
p564
aVdoubletofloat
p565
aVdoubletoint
p566
aVdoubletointeger
p567
aVdoubletolong
p568
aVdoubletoshort
p569
aVdpres_hybrid_ccm
p570
aVdpres_plevel
p571
aVdraw
p572
aVdraw_color_palette
p573
aVdsgetp
p574
aVdsgrid2
p575
aVdsgrid2d
p576
aVdsgrid2s
p577
aVdsgrid3
p578
aVdsgrid3d
p579
aVdsgrid3s
p580
aVdspnt2
p581
aVdspnt2d
p582
aVdspnt2s
p583
aVdspnt3
p584
aVdspnt3d
p585
aVdspnt3s
p586
aVdssetp
p587
aVdtrend
p588
aVdtrend_msg
p589
aVdtrend_msg_n
p590
aVdtrend_n
p591
aVdtrend_quadratic
p592
aVdtrend_quadratic_msg_n
p593
aVdv2uvF
p594
aVdv2uvf
p595
aVdv2uvG
p596
aVdv2uvg
p597
aVdz_height
p598
aVecho_off
p599
aVecho_on
p600
aVeof2data
p601
aVeof2data_n
p602
aVeof_varimax
p603
aVeofcor
p604
aVeofcor_pcmsg
p605
aVeofcor_ts
p606
aVeofcov
p607
aVeofcov_pcmsg
p608
aVeofcov_ts
p609
aVeofunc
p610
aVeofunc_n
p611
aVeofunc_ts
p612
aVeofunc_ts_n
p613
aVeofunc_varimax
p614
aVequiv_sample_size
p615
aVerf
p616
aVerfc
p617
aVesacr
p618
aVesacv
p619
aVesccr
p620
aVesccv
p621
aVescorc
p622
aVescorc_n
p623
aVescovc
p624
aVexit
p625
aVexp
p626
aVexp_tapersh
p627
aVexp_tapersh_wgts
p628
aVexp_tapershC
p629
aVextval_mlegev
p630
aVezfftb
p631
aVezfftb_n
p632
aVezfftf
p633
aVezfftf_n
p634
aVf2fosh
p635
aVf2foshv
p636
aVf2fsh
p637
aVf2fshv
p638
aVf2gsh
p639
aVf2gshv
p640
aVfabs
p641
aVfbindirread
p642
aVfbindirwrite
p643
aVfbinnumrec
p644
aVfbinread
p645
aVfbinrecread
p646
aVfbinrecwrite
p647
aVfbinwrite
p648
aVfft2db
p649
aVfft2df
p650
aVfftshift
p651
aVfileattdef
p652
aVfilechunkdimdef
p653
aVfiledimdef
p654
aVfileexists
p655
aVfilegrpdef
p656
aVfilevarattdef
p657
aVfilevarchunkdef
p658
aVfilevarcompressleveldef
p659
aVfilevardef
p660
aVfilevardimsizes
p661
aVfilwgts_lancos
p662
aVfilwgts_lanczos
p663
aVfilwgts_normal
p664
aVfloattobyte
p665
aVfloattochar
p666
aVfloattocharacter
p667
aVfloattoint
p668
aVfloattointeger
p669
aVfloattolong
p670
aVfloattoshort
p671
aVfloor
p672
aVfluxEddy
p673
aVfo2fsh
p674
aVfo2fshv
p675
aVfourier_info
p676
aVframe
p677
aVfspan
p678
aVftcurv
p679
aVftcurvd
p680
aVftcurvi
p681
aVftcurvp
p682
aVftcurvpi
p683
aVftcurvps
p684
aVftcurvs
p685
aVftest
p686
aVftgetp
p687
aVftkurv
p688
aVftkurvd
p689
aVftkurvp
p690
aVftkurvpd
p691
aVftsetp
p692
aVftsurf
p693
aVg2fsh
p694
aVg2fshv
p695
aVg2gsh
p696
aVg2gshv
p697
aVgamma
p698
aVgammainc
p699
aVgaus
p700
aVgaus_lobat
p701
aVgaus_lobat_wgt
p702
aVgc_aangle
p703
aVgc_clkwise
p704
aVgc_dangle
p705
aVgc_inout
p706
aVgc_latlon
p707
aVgc_onarc
p708
aVgc_pnt2gc
p709
aVgc_qarea
p710
aVgc_tarea
p711
aVgenerate_2d_array
p712
aVget_color_rgba
p713
aVget_cpu_time
p714
aVget_isolines
p715
aVget_ncl_version
p716
aVget_script_name
p717
aVget_script_prefix_name
p718
aVget_sphere_radius
p719
aVget_unique_values
p720
aVgetbitsone
p721
aVgetenv
p722
aVgetfiledimsizes
p723
aVgetfilegrpnames
p724
aVgetfilepath
p725
aVgetfilevaratts
p726
aVgetfilevarchunkdimsizes
p727
aVgetfilevardims
p728
aVgetfilevardimsizes
p729
aVgetfilevarnames
p730
aVgetfilevartypes
p731
aVgetvaratts
p732
aVgetvardims
p733
aVgradsf
p734
aVgradsg
p735
aVgreg2jul
p736
aVgrid2triple
p737
aVhlsrgb
p738
aVhsvrgb
p739
aVhydro
p740
aVhyi2hyo
p741
aVidsfft
p742
aVigradsf
p743
aVigradsF
p744
aVigradsg
p745
aVigradsG
p746
aVilapsf
p747
aVilapsF
p748
aVilapsg
p749
aVilapsG
p750
aVilapvf
p751
aVilapvg
p752
aVind
p753
aVind_resolve
p754
aVint2p
p755
aVint2p_n
p756
aVintegertobyte
p757
aVintegertochar
p758
aVintegertocharacter
p759
aVintegertoshort
p760
aVinttobyte
p761
aVinttochar
p762
aVinttoshort
p763
aVinverse_matrix
p764
aVis_string_numeric
p765
aVisatt
p766
aVisbigendian
p767
aVisbyte
p768
aVischar
p769
aViscoord
p770
aVisdefined
p771
aVisdim
p772
aVisdimnamed
p773
aVisdouble
p774
aVisenumeric
p775
aVisfile
p776
aVisfilepresent
p777
aVisfilevar
p778
aVisfilevaratt
p779
aVisfilevarcoord
p780
aVisfilevardim
p781
aVisfloat
p782
aVisfunc
p783
aVisgraphic
p784
aVisint
p785
aVisint64
p786
aVisinteger
p787
aVisleapyear
p788
aVislogical
p789
aVislong
p790
aVismissing
p791
aVisnan_ieee
p792
aVisnumeric
p793
aVispan
p794
aVisproc
p795
aVisscalar
p796
aVisshort
p797
aVissnumeric
p798
aVisstring
p799
aVisubyte
p800
aVisuint
p801
aVisuint64
p802
aVisulong
p803
aVisunlimited
p804
aVisunsigned
p805
aVisushort
p806
aVisvar
p807
aVjul2greg
p808
aVkmeans_as136
p809
aVkolsm2_n
p810
aVkron_product
p811
aVlapsF
p812
aVlapsf
p813
aVlapsG
p814
aVlapsg
p815
aVlapvf
p816
aVlapvg
p817
aVlatlon2utm
p818
aVlclvl
p819
aVlderuvf
p820
aVlderuvg
p821
aVlinint1
p822
aVlinint1_n
p823
aVlinint2
p824
aVlinint2_points
p825
aVlinmsg
p826
aVlinmsg_n
p827
aVlinrood_latwgt
p828
aVlinrood_wgt
p829
aVlist_files
p830
aVlist_filevars
p831
aVlist_hlus
p832
aVlist_procfuncs
p833
aVlist_vars
p834
aVListAppend
p835
aVListCount
p836
aVListGetType
p837
aVListIndex
p838
aVListIndexFromName
p839
aVListPop
p840
aVListPush
p841
aVListSetType
p842
aVloadscript
p843
aVlocal_max
p844
aVlocal_min
p845
aVlog
p846
aVlog10
p847
aVlongtobyte
p848
aVlongtochar
p849
aVlongtocharacter
p850
aVlongtoint
p851
aVlongtointeger
p852
aVlongtoshort
p853
aVlspoly
p854
aVlspoly_n
p855
aVmask
p856
aVmax
p857
aVmaxind
p858
aVmin
p859
aVminind
p860
aVmixed_layer_depth
p861
aVmixhum_ptd
p862
aVmixhum_ptrh
p863
aVmjo_cross_coh2pha
p864
aVmjo_cross_segment
p865
aVmoc_globe_atl
p866
aVmonthday
p867
aVnamedcolor2rgb
p868
aVnamedcolor2rgba
p869
aVnatgrid
p870
aVnatgridd
p871
aVnatgrids
p872
aVncargpath
p873
aVncargversion
p874
aVndctodata
p875
aVndtooned
p876
aVnew
p877
aVNewList
p878
aVngezlogo
p879
aVnggcog
p880
aVnggetp
p881
aVnglogo
p882
aVngsetp
p883
aVNhlAddAnnotation
p884
aVNhlAddData
p885
aVNhlAddOverlay
p886
aVNhlAddPrimitive
p887
aVNhlAppGetDefaultParentId
p888
aVNhlChangeWorkstation
p889
aVNhlClassName
p890
aVNhlClearWorkstation
p891
aVNhlDataPolygon
p892
aVNhlDataPolyline
p893
aVNhlDataPolymarker
p894
aVNhlDataToNDC
p895
aVNhlDestroy
p896
aVNhlDraw
p897
aVNhlFrame
p898
aVNhlFreeColor
p899
aVNhlGetBB
p900
aVNhlGetClassResources
p901
aVNhlGetErrorObjectId
p902
aVNhlGetNamedColorIndex
p903
aVNhlGetParentId
p904
aVNhlGetParentWorkstation
p905
aVNhlGetWorkspaceObjectId
p906
aVNhlIsAllocatedColor
p907
aVNhlIsApp
p908
aVNhlIsDataComm
p909
aVNhlIsDataItem
p910
aVNhlIsDataSpec
p911
aVNhlIsTransform
p912
aVNhlIsView
p913
aVNhlIsWorkstation
p914
aVNhlName
p915
aVNhlNDCPolygon
p916
aVNhlNDCPolyline
p917
aVNhlNDCPolymarker
p918
aVNhlNDCToData
p919
aVNhlNewColor
p920
aVNhlNewDashPattern
p921
aVNhlNewMarker
p922
aVNhlPalGetDefined
p923
aVNhlRemoveAnnotation
p924
aVNhlRemoveData
p925
aVNhlRemoveOverlay
p926
aVNhlRemovePrimitive
p927
aVNhlSetColor
p928
aVNhlSetDashPattern
p929
aVNhlSetMarker
p930
aVNhlUpdateData
p931
aVNhlUpdateWorkstation
p932
aVnice_mnmxintvl
p933
aVnngetaspectd
p934
aVnngetaspects
p935
aVnngetp
p936
aVnngetsloped
p937
aVnngetslopes
p938
aVnngetwts
p939
aVnngetwtsd
p940
aVnnpnt
p941
aVnnpntd
p942
aVnnpntend
p943
aVnnpntendd
p944
aVnnpntinit
p945
aVnnpntinitd
p946
aVnnpntinits
p947
aVnnpnts
p948
aVnnsetp
p949
aVnum
p950
aVobj_anal_ic
p951
aVomega_ccm
p952
aVonedtond
p953
aVoverlay
p954
aVpaleo_outline
p955
aVpdfxy_bin
p956
aVpoisson_grid_fill
p957
aVpop_remap
p958
aVpotmp_insitu_ocn
p959
aVprcwater_dp
p960
aVpres2hybrid
p961
aVpres_hybrid_ccm
p962
aVpres_hybrid_jra55
p963
aVpres_sigma
p964
aVprint
p965
aVprint_table
p966
aVprintFileVarSummary
p967
aVprintVarSummary
p968
aVproduct
p969
aVpslec
p970
aVpslhor
p971
aVpslhyp
p972
aVqsort
p973
aVrand
p974
aVrandom_chi
p975
aVrandom_gamma
p976
aVrandom_normal
p977
aVrandom_setallseed
p978
aVrandom_uniform
p979
aVrcm2points
p980
aVrcm2rgrid
p981
aVrdsstoi
p982
aVread_colormap_file
p983
aVreg_multlin
p984
aVregcoef
p985
aVregCoef
p986
aVregCoef_n
p987
aVregline
p988
aVrelhum
p989
aVrelhum_ice
p990
aVrelhum_water
p991
aVreplace_ieeenan
p992
aVreshape
p993
aVreshape_ind
p994
aVrgbhls
p995
aVrgbhsv
p996
aVrgbyiq
p997
aVrgrid2rcm
p998
aVrhomb_trunc
p999
aVrhomb_trunC
p1000
aVrip_cape_2d
p1001
aVrip_cape_3d
p1002
aVround
p1003
aVrtest
p1004
aVrunave
p1005
aVrunave_n
p1006
aVset_default_fillvalue
p1007
aVset_sphere_radius
p1008
aVsetfileoption
p1009
aVsfvp2uvf
p1010
aVsfvp2uvg
p1011
aVshaeC
p1012
aVshaec
p1013
aVshagC
p1014
aVshagc
p1015
aVshgetnp
p1016
aVshgetp
p1017
aVshgrid
p1018
aVshorttobyte
p1019
aVshorttochar
p1020
aVshorttocharacter
p1021
aVshow_ascii
p1022
aVshsec
p1023
aVshseC
p1024
aVshsetp
p1025
aVshsgc
p1026
aVshsgC
p1027
aVshsgc_R42
p1028
aVsigma2hybrid
p1029
aVsimpeq
p1030
aVsimpne
p1031
aVsin
p1032
aVsindex_yrmo
p1033
aVsinh
p1034
aVsizeof
p1035
aVsleep
p1036
aVsmth9
p1037
aVsnindex_yrmo
p1038
aVsolve_linsys
p1039
aVspan_color_indexes
p1040
aVspan_color_rgba
p1041
aVspan_named_colors
p1042
aVsparse_matrix_mult
p1043
aVspcorr
p1044
aVspcorr_n
p1045
aVspecx_anal
p1046
aVspecxy_anal
p1047
aVsprintf
p1048
aVsprinti
p1049
aVsqrt
p1050
aVsqsort
p1051
aVsrand
p1052
aVstat2
p1053
aVstat4
p1054
aVstat_medrng
p1055
aVstat_trim
p1056
aVstatus_exit
p1057
aVstdatmus_p2tdz
p1058
aVstdatmus_z2tdp
p1059
aVstddev
p1060
aVstr_capital
p1061
aVstr_concat
p1062
aVstr_fields_count
p1063
aVstr_get_cols
p1064
aVstr_get_dq
p1065
aVstr_get_field
p1066
aVstr_get_nl
p1067
aVstr_get_sq
p1068
aVstr_get_tab
p1069
aVstr_index_of_substr
p1070
aVstr_insert
p1071
aVstr_is_blank
p1072
aVstr_join
p1073
aVstr_left_strip
p1074
aVstr_lower
p1075
aVstr_match
p1076
aVstr_match_ic
p1077
aVstr_match_ic_regex
p1078
aVstr_match_ind
p1079
aVstr_match_ind_ic
p1080
aVstr_match_ind_ic_regex
p1081
aVstr_match_ind_regex
p1082
aVstr_match_regex
p1083
aVstr_right_strip
p1084
aVstr_split
p1085
aVstr_split_by_length
p1086
aVstr_split_csv
p1087
aVstr_squeeze
p1088
aVstr_strip
p1089
aVstr_sub_str
p1090
aVstr_switch
p1091
aVstr_upper
p1092
aVstringtochar
p1093
aVstringtocharacter
p1094
aVstringtodouble
p1095
aVstringtofloat
p1096
aVstringtoint
p1097
aVstringtointeger
p1098
aVstringtolong
p1099
aVstringtoshort
p1100
aVstrlen
p1101
aVstudent_t
p1102
aVsum
p1103
aVsvd_lapack
p1104
aVsvdcov
p1105
aVsvdcov_sv
p1106
aVsvdstd
p1107
aVsvdstd_sv
p1108
aVsystem
p1109
aVsystemfunc
p1110
aVtan
p1111
aVtanh
p1112
aVtaper
p1113
aVtaper_n
p1114
aVtdclrs
p1115
aVtdctri
p1116
aVtdcudp
p1117
aVtdcurv
p1118
aVtddtri
p1119
aVtdez2d
p1120
aVtdez3d
p1121
aVtdgetp
p1122
aVtdgrds
p1123
aVtdgrid
p1124
aVtdgtrs
p1125
aVtdinit
p1126
aVtditri
p1127
aVtdlbla
p1128
aVtdlblp
p1129
aVtdlbls
p1130
aVtdline
p1131
aVtdlndp
p1132
aVtdlnpa
p1133
aVtdlpdp
p1134
aVtdmtri
p1135
aVtdotri
p1136
aVtdpara
p1137
aVtdplch
p1138
aVtdprpa
p1139
aVtdprpi
p1140
aVtdprpt
p1141
aVtdsetp
p1142
aVtdsort
p1143
aVtdstri
p1144
aVtdstrs
p1145
aVtdttri
p1146
aVthornthwaite
p1147
aVtobyte
p1148
aVtochar
p1149
aVtodouble
p1150
aVtofloat
p1151
aVtoint
p1152
aVtoint64
p1153
aVtointeger
p1154
aVtolong
p1155
aVtoshort
p1156
aVtosigned
p1157
aVtostring
p1158
aVtostring_with_format
p1159
aVtotype
p1160
aVtoubyte
p1161
aVtouint
p1162
aVtouint64
p1163
aVtoulong
p1164
aVtounsigned
p1165
aVtoushort
p1166
aVtrend_manken
p1167
aVtri_trunC
p1168
aVtri_trunc
p1169
aVtriple2grid
p1170
aVtriple2grid2d
p1171
aVtrop_wmo
p1172
aVttest
p1173
aVtypeof
p1174
aVundef
p1175
aVunique_string
p1176
aVupdate
p1177
aVushorttoint
p1178
aVut_calendar
p1179
aVut_inv_calendar
p1180
aVutm2latlon
p1181
aVuv2dv_cfd
p1182
aVuv2dvf
p1183
aVuv2dvF
p1184
aVuv2dvg
p1185
aVuv2dvG
p1186
aVuv2sfvpF
p1187
aVuv2sfvpf
p1188
aVuv2sfvpG
p1189
aVuv2sfvpg
p1190
aVuv2vr_cfd
p1191
aVuv2vrdvF
p1192
aVuv2vrdvf
p1193
aVuv2vrdvG
p1194
aVuv2vrdvg
p1195
aVuv2vrF
p1196
aVuv2vrf
p1197
aVuv2vrG
p1198
aVuv2vrg
p1199
aVv5d_close
p1200
aVv5d_create
p1201
aVv5d_setLowLev
p1202
aVv5d_setUnits
p1203
aVv5d_write
p1204
aVv5d_write_var
p1205
aVvariance
p1206
aVvhaeC
p1207
aVvhaec
p1208
aVvhagC
p1209
aVvhagc
p1210
aVvhseC
p1211
aVvhsec
p1212
aVvhsgc
p1213
aVvhsgC
p1214
aVvibeta
p1215
aVvinth2p
p1216
aVvinth2p_ecmwf
p1217
aVvinth2p_ecmwf_nodes
p1218
aVvinth2p_nodes
p1219
aVvintp2p_ecmwf
p1220
aVvr2uvf
p1221
aVvr2uvF
p1222
aVvr2uvg
p1223
aVvr2uvG
p1224
aVvrdv2uvf
p1225
aVvrdv2uvF
p1226
aVvrdv2uvg
p1227
aVvrdv2uvG
p1228
aVwavelet
p1229
aVwavelet_default
p1230
aVweibull
p1231
aVwetbulb
p1232
aVwgt_area_smooth
p1233
aVwgt_areaave
p1234
aVwgt_areaave2
p1235
aVwgt_arearmse
p1236
aVwgt_arearmse2
p1237
aVwgt_areasum2
p1238
aVwgt_runave
p1239
aVwgt_runave_n
p1240
aVwgt_vert_avg_beta
p1241
aVwgt_volave
p1242
aVwgt_volave_ccm
p1243
aVwgt_volrmse
p1244
aVwgt_volrmse_ccm
p1245
aVwhere
p1246
aVwk_smooth121
p1247
aVwmbarb
p1248
aVwmbarbmap
p1249
aVwmdrft
p1250
aVwmgetp
p1251
aVwmlabs
p1252
aVwmsetp
p1253
aVwmstnm
p1254
aVwmvect
p1255
aVwmvectmap
p1256
aVwmvlbl
p1257
aVwrf_avo
p1258
aVwrf_cape_2d
p1259
aVwrf_cape_3d
p1260
aVwrf_dbz
p1261
aVwrf_eth
p1262
aVwrf_helicity
p1263
aVwrf_ij_to_ll
p1264
aVwrf_interp_1d
p1265
aVwrf_interp_2d_xy
p1266
aVwrf_interp_3d_z
p1267
aVwrf_latlon_to_ij
p1268
aVwrf_ll_to_ij
p1269
aVwrf_omega
p1270
aVwrf_pvo
p1271
aVwrf_rh
p1272
aVwrf_slp
p1273
aVwrf_smooth_2d
p1274
aVwrf_td
p1275
aVwrf_tk
p1276
aVwrf_updraft_helicity
p1277
aVwrf_uvmet
p1278
aVwrf_virtual_temp
p1279
aVwrf_wetbulb
p1280
aVwrf_wps_close_int
p1281
aVwrf_wps_open_int
p1282
aVwrf_wps_rddata_int
p1283
aVwrf_wps_rdhead_int
p1284
aVwrf_wps_read_int
p1285
aVwrf_wps_write_int
p1286
aVwrite_matrix
p1287
aVwrite_table
p1288
aVyiqrgb
p1289
aVz2geouv
p1290
aVzonal_mpsi
p1291
aasS'user'
p1292
(lp1293
S'ncl_key_user'
p1294
aS'Ncl user_contributed functions.'
p1295
aS'http://www.ncl.ucar.edu//Document/Functions/User_contributed/'
p1296
a(lp1297
Vcalendar_decode2
p1298
aVcd_inv_string
p1299
aVcd_string
p1300
aVkf_filter
p1301
aVrun_cor
p1302
aVtime_axis_labels
p1303
aVut_string
p1304
aasS'keywords'
p1305
(lp1306
S'ncl_key_keywords'
p1307
aS'Reserved Keywords in ncl.'
p1308
aS'http://www.ncl.ucar.edu/Document/Manuals/Ref_Manual/NclKeywords.shtml'
p1309
a(lp1310
Vbegin
p1311
aVbreak
p1312
aVbyte
p1313
aVcharacter
p1314
aVcontinue
p1315
aVcreate
p1316
aVdefaultapp
p1317
aVdo
p1318
aVdouble
p1319
aVelse
p1320
aVend
p1321
aVenumeric
p1322
aVexternal
p1323
aVexit
p1324
aVFalse
p1325
aVfile
p1326
aVfloat
p1327
aVfunction
p1328
aVgetvalues
p1329
aVgraphic
p1330
aVgroup
p1331
aVif
p1332
aVinteger
p1333
aVint64
p1334
aVlist
p1335
aVload
p1336
aVlocal
p1337
aVlogical
p1338
aVlong
p1339
aVnew
p1340
aV_Missing
p1341
aVMissing
p1342
aVnew
p1343
aVnoparent
p1344
aVnumeric
p1345
aVprocedure
p1346
aVquit
p1347
aVQUIT
p1348
aVQuit
p1349
aVrecord
p1350
aVreturn
p1351
aVsetvalues
p1352
aVshort
p1353
aVsnumeric
p1354
aVstop
p1355
aVstring
p1356
aVthen
p1357
aVTrue
p1358
aVubyte
p1359
aVuint
p1360
aVuint64
p1361
aVulong
p1362
aVushort
p1363
aVwhile
p1364
aasS'skewt'
p1365
(lp1366
S'ncl_key_skewt'
p1367
aS'Ncl skewt functions.'
p1368
aS'http://www.ncl.ucar.edu//Document/Functions/Skewt_func/'
p1369
a(lp1370
VskewT_BackGround
p1371
aVskewT_PlotData
p1372
aasS'resources'
p1373
(lp1374
S'ncl_key_resources'
p1375
aS'Ncl resources.'
p1376
aS'http://www.ncl.ucar.edu/Document/Graphics/Resources/list_alpha_res.shtml'
p1377
a(lp1378
VamDataXF
p1379
aVamDataYF
p1380
aVamJust
p1381
aVamOn
p1382
aVamOrthogonalPosF
p1383
aVamParallelPosF
p1384
aVamResizeNotify
p1385
aVamSide
p1386
aVamTrackData
p1387
aVamViewId
p1388
aVamZone
p1389
aVappDefaultParent
p1390
aVappFileSuffix
p1391
aVappResources
p1392
aVappSysDir
p1393
aVappUsrDir
p1394
aVcaCopyArrays
p1395
aVcaXArray
p1396
aVcaXCast
p1397
aVcaXMaxV
p1398
aVcaXMinV
p1399
aVcaXMissingV
p1400
aVcaYArray
p1401
aVcaYCast
p1402
aVcaYMaxV
p1403
aVcaYMinV
p1404
aVcaYMissingV
p1405
aVcnCellFillEdgeColor
p1406
aVcnCellFillMissingValEdgeColor
p1407
aVcnConpackParams
p1408
aVcnConstFEnableFill
p1409
aVcnConstFLabelAngleF
p1410
aVcnConstFLabelBackgroundColor
p1411
aVcnConstFLabelConstantSpacingF
p1412
aVcnConstFLabelFont
p1413
aVcnConstFLabelFontAspectF
p1414
aVcnConstFLabelFontColor
p1415
aVcnConstFLabelFontHeightF
p1416
aVcnConstFLabelFontQuality
p1417
aVcnConstFLabelFontThicknessF
p1418
aVcnConstFLabelFormat
p1419
aVcnConstFLabelFuncCode
p1420
aVcnConstFLabelJust
p1421
aVcnConstFLabelOn
p1422
aVcnConstFLabelOrthogonalPosF
p1423
aVcnConstFLabelParallelPosF
p1424
aVcnConstFLabelPerimColor
p1425
aVcnConstFLabelPerimOn
p1426
aVcnConstFLabelPerimSpaceF
p1427
aVcnConstFLabelPerimThicknessF
p1428
aVcnConstFLabelSide
p1429
aVcnConstFLabelString
p1430
aVcnConstFLabelTextDirection
p1431
aVcnConstFLabelZone
p1432
aVcnConstFUseInfoLabelRes
p1433
aVcnExplicitLabelBarLabelsOn
p1434
aVcnExplicitLegendLabelsOn
p1435
aVcnExplicitLineLabelsOn
p1436
aVcnFillBackgroundColor
p1437
aVcnFillColor
p1438
aVcnFillColors
p1439
aVcnFillDotSizeF
p1440
aVcnFillDrawOrder
p1441
aVcnFillMode
p1442
aVcnFillOn
p1443
aVcnFillOpacityF
p1444
aVcnFillPalette
p1445
aVcnFillPattern
p1446
aVcnFillPatterns
p1447
aVcnFillScaleF
p1448
aVcnFillScales
p1449
aVcnFixFillBleed
p1450
aVcnGridBoundFillColor
p1451
aVcnGridBoundFillPattern
p1452
aVcnGridBoundFillScaleF
p1453
aVcnGridBoundPerimColor
p1454
aVcnGridBoundPerimDashPattern
p1455
aVcnGridBoundPerimOn
p1456
aVcnGridBoundPerimThicknessF
p1457
aVcnHighLabelAngleF
p1458
aVcnHighLabelBackgroundColor
p1459
aVcnHighLabelConstantSpacingF
p1460
aVcnHighLabelCount
p1461
aVcnHighLabelFont
p1462
aVcnHighLabelFontAspectF
p1463
aVcnHighLabelFontColor
p1464
aVcnHighLabelFontHeightF
p1465
aVcnHighLabelFontQuality
p1466
aVcnHighLabelFontThicknessF
p1467
aVcnHighLabelFormat
p1468
aVcnHighLabelFuncCode
p1469
aVcnHighLabelPerimColor
p1470
aVcnHighLabelPerimOn
p1471
aVcnHighLabelPerimSpaceF
p1472
aVcnHighLabelPerimThicknessF
p1473
aVcnHighLabelString
p1474
aVcnHighLabelsOn
p1475
aVcnHighLowLabelOverlapMode
p1476
aVcnHighUseLineLabelRes
p1477
aVcnInfoLabelAngleF
p1478
aVcnInfoLabelBackgroundColor
p1479
aVcnInfoLabelConstantSpacingF
p1480
aVcnInfoLabelFont
p1481
aVcnInfoLabelFontAspectF
p1482
aVcnInfoLabelFontColor
p1483
aVcnInfoLabelFontHeightF
p1484
aVcnInfoLabelFontQuality
p1485
aVcnInfoLabelFontThicknessF
p1486
aVcnInfoLabelFormat
p1487
aVcnInfoLabelFuncCode
p1488
aVcnInfoLabelJust
p1489
aVcnInfoLabelOn
p1490
aVcnInfoLabelOrthogonalPosF
p1491
aVcnInfoLabelParallelPosF
p1492
aVcnInfoLabelPerimColor
p1493
aVcnInfoLabelPerimOn
p1494
aVcnInfoLabelPerimSpaceF
p1495
aVcnInfoLabelPerimThicknessF
p1496
aVcnInfoLabelSide
p1497
aVcnInfoLabelString
p1498
aVcnInfoLabelTextDirection
p1499
aVcnInfoLabelZone
p1500
aVcnLabelBarEndLabelsOn
p1501
aVcnLabelBarEndStyle
p1502
aVcnLabelDrawOrder
p1503
aVcnLabelMasking
p1504
aVcnLabelScaleFactorF
p1505
aVcnLabelScaleValueF
p1506
aVcnLabelScalingMode
p1507
aVcnLegendLevelFlags
p1508
aVcnLevelCount
p1509
aVcnLevelFlag
p1510
aVcnLevelFlags
p1511
aVcnLevelSelectionMode
p1512
aVcnLevelSpacingF
p1513
aVcnLevels
p1514
aVcnLineColor
p1515
aVcnLineColors
p1516
aVcnLineDashPattern
p1517
aVcnLineDashPatterns
p1518
aVcnLineDashSegLenF
p1519
aVcnLineDrawOrder
p1520
aVcnLineLabelAngleF
p1521
aVcnLineLabelBackgroundColor
p1522
aVcnLineLabelConstantSpacingF
p1523
aVcnLineLabelCount
p1524
aVcnLineLabelDensityF
p1525
aVcnLineLabelFont
p1526
aVcnLineLabelFontAspectF
p1527
aVcnLineLabelFontColor
p1528
aVcnLineLabelFontColors
p1529
aVcnLineLabelFontHeightF
p1530
aVcnLineLabelFontQuality
p1531
aVcnLineLabelFontThicknessF
p1532
aVcnLineLabelFormat
p1533
aVcnLineLabelFuncCode
p1534
aVcnLineLabelInterval
p1535
aVcnLineLabelPerimColor
p1536
aVcnLineLabelPerimOn
p1537
aVcnLineLabelPerimSpaceF
p1538
aVcnLineLabelPerimThicknessF
p1539
aVcnLineLabelPlacementMode
p1540
aVcnLineLabelStrings
p1541
aVcnLineLabelsOn
p1542
aVcnLineLabelsOn
p1543
aVcnLinePalette
p1544
aVcnLineThicknessF
p1545
aVcnLineThicknesses
p1546
aVcnLinesOn
p1547
aVcnLowLabelAngleF
p1548
aVcnLowLabelBackgroundColor
p1549
aVcnLowLabelConstantSpacingF
p1550
aVcnLowLabelCount
p1551
aVcnLowLabelFont
p1552
aVcnLowLabelFontAspectF
p1553
aVcnLowLabelFontColor
p1554
aVcnLowLabelFontHeightF
p1555
aVcnLowLabelFontQuality
p1556
aVcnLowLabelFontThicknessF
p1557
aVcnLowLabelFormat
p1558
aVcnLowLabelFuncCode
p1559
aVcnLowLabelPerimColor
p1560
aVcnLowLabelPerimOn
p1561
aVcnLowLabelPerimSpaceF
p1562
aVcnLowLabelPerimThicknessF
p1563
aVcnLowLabelString
p1564
aVcnLowLabelsOn
p1565
aVcnLowUseHighLabelRes
p1566
aVcnMaxDataValueFormat
p1567
aVcnMaxLevelCount
p1568
aVcnMaxLevelValF
p1569
aVcnMaxPointDistanceF
p1570
aVcnMinLevelValF
p1571
aVcnMissingValFillColor
p1572
aVcnMissingValFillPattern
p1573
aVcnMissingValFillScaleF
p1574
aVcnMissingValPerimColor
p1575
aVcnMissingValPerimDashPattern
p1576
aVcnMissingValPerimGridBoundOn
p1577
aVcnMissingValPerimOn
p1578
aVcnMissingValPerimThicknessF
p1579
aVcnMonoFillColor
p1580
aVcnMonoFillPattern
p1581
aVcnMonoFillScale
p1582
aVcnMonoLevelFlag
p1583
aVcnMonoLineColor
p1584
aVcnMonoLineDashPattern
p1585
aVcnMonoLineLabelFontColor
p1586
aVcnMonoLineThickness
p1587
aVcnNoDataLabelOn
p1588
aVcnNoDataLabelString
p1589
aVcnOutOfRangeFillColor
p1590
aVcnOutOfRangeFillPattern
p1591
aVcnOutOfRangeFillScaleF
p1592
aVcnOutOfRangePerimColor
p1593
aVcnOutOfRangePerimDashPattern
p1594
aVcnOutOfRangePerimOn
p1595
aVcnOutOfRangePerimThicknessF
p1596
aVcnRasterCellSizeF
p1597
aVcnRasterMinCellSizeF
p1598
aVcnRasterModeOn
p1599
aVcnRasterSampleFactorF
p1600
aVcnRasterSmoothingOn
p1601
aVcnScalarFieldData
p1602
aVcnSmoothingDistanceF
p1603
aVcnSmoothingOn
p1604
aVcnSmoothingTensionF
p1605
aVcnSpanFillPalette
p1606
aVcnSpanLinePalette
p1607
aVctCopyTables
p1608
aVctXElementSize
p1609
aVctXMaxV
p1610
aVctXMinV
p1611
aVctXMissingV
p1612
aVctXTable
p1613
aVctXTableLengths
p1614
aVctXTableType
p1615
aVctYElementSize
p1616
aVctYMaxV
p1617
aVctYMinV
p1618
aVctYMissingV
p1619
aVctYTable
p1620
aVctYTableLengths
p1621
aVctYTableType
p1622
aVdcDelayCompute
p1623
aVerrBuffer
p1624
aVerrFileName
p1625
aVerrFilePtr
p1626
aVerrLevel
p1627
aVerrPrint
p1628
aVerrUnitNumber
p1629
aVgsClipOn
p1630
aVgsColors
p1631
aVgsEdgeColor
p1632
aVgsEdgeDashPattern
p1633
aVgsEdgeDashSegLenF
p1634
aVgsEdgeThicknessF
p1635
aVgsEdgesOn
p1636
aVgsFillBackgroundColor
p1637
aVgsFillColor
p1638
aVgsFillDotSizeF
p1639
aVgsFillIndex
p1640
aVgsFillLineThicknessF
p1641
aVgsFillOpacityF
p1642
aVgsFillScaleF
p1643
aVgsFont
p1644
aVgsFontAspectF
p1645
aVgsFontColor
p1646
aVgsFontHeightF
p1647
aVgsFontOpacityF
p1648
aVgsFontQuality
p1649
aVgsFontThicknessF
p1650
aVgsLineColor
p1651
aVgsLineDashPattern
p1652
aVgsLineDashSegLenF
p1653
aVgsLineLabelConstantSpacingF
p1654
aVgsLineLabelFont
p1655
aVgsLineLabelFontAspectF
p1656
aVgsLineLabelFontColor
p1657
aVgsLineLabelFontHeightF
p1658
aVgsLineLabelFontQuality
p1659
aVgsLineLabelFontThicknessF
p1660
aVgsLineLabelFuncCode
p1661
aVgsLineLabelString
p1662
aVgsLineOpacityF
p1663
aVgsLineThicknessF
p1664
aVgsMarkerColor
p1665
aVgsMarkerIndex
p1666
aVgsMarkerOpacityF
p1667
aVgsMarkerSizeF
p1668
aVgsMarkerThicknessF
p1669
aVgsSegments
p1670
aVgsTextAngleF
p1671
aVgsTextConstantSpacingF
p1672
aVgsTextDirection
p1673
aVgsTextFuncCode
p1674
aVgsTextJustification
p1675
aVgsnAboveYRefLineBarColors
p1676
aVgsnAboveYRefLineBarFillScales
p1677
aVgsnAboveYRefLineBarPatterns
p1678
aVgsnAboveYRefLineColor
p1679
aVgsnAddCyclic
p1680
aVgsnAttachBorderOn
p1681
aVgsnAttachPlotsXAxis
p1682
aVgsnBelowYRefLineBarColors
p1683
aVgsnBelowYRefLineBarFillScales
p1684
aVgsnBelowYRefLineBarPatterns
p1685
aVgsnBelowYRefLineColor
p1686
aVgsnBoxMargin
p1687
aVgsnCenterString
p1688
aVgsnCenterStringFontColor
p1689
aVgsnCenterStringFontHeightF
p1690
aVgsnCenterStringFuncCode
p1691
aVgsnCenterStringOrthogonalPosF
p1692
aVgsnCenterStringParallelPosF
p1693
aVgsnContourLineThicknessesScale
p1694
aVgsnContourNegLineDashPattern
p1695
aVgsnContourPosLineDashPattern
p1696
aVgsnContourZeroLineThicknessF
p1697
aVgsnDebugWriteFileName
p1698
aVgsnDraw
p1699
aVgsnFrame
p1700
aVgsnHistogramBarColors
p1701
aVgsnHistogramBarWidthPercent
p1702
aVgsnHistogramBinIntervals
p1703
aVgsnHistogramBinMissing
p1704
aVgsnHistogramBinWidth
p1705
aVgsnHistogramClassIntervals
p1706
aVgsnHistogramCompare
p1707
aVgsnHistogramComputePercentages
p1708
aVgsnHistogramComputePercentagesNoMissing
p1709
aVgsnHistogramDiscreteBinValues
p1710
aVgsnHistogramDiscreteClassValues
p1711
aVgsnHistogramHorizontal
p1712
aVgsnHistogramMinMaxBinsOn
p1713
aVgsnHistogramNumberOfBins
p1714
aVgsnHistogramPercentSign
p1715
aVgsnHistogramSelectNiceIntervals
p1716
aVgsnLeftString
p1717
aVgsnLeftStringFontColor
p1718
aVgsnLeftStringFontHeightF
p1719
aVgsnLeftStringFuncCode
p1720
aVgsnLeftStringOrthogonalPosF
p1721
aVgsnLeftStringParallelPosF
p1722
aVgsnMajorLatSpacing
p1723
aVgsnMajorLonSpacing
p1724
aVgsnMaskLambertConformal
p1725
aVgsnMaskLambertConformalOutlineOn
p1726
aVgsnMaximize
p1727
aVgsnMinorLatSpacing
p1728
aVgsnMinorLonSpacing
p1729
aVgsnPanelBottom
p1730
aVgsnPanelCenter
p1731
aVgsnPanelDebug
p1732
aVgsnPanelFigureStrings
p1733
aVgsnPanelFigureStringsBackgroundFillColor
p1734
aVgsnPanelFigureStringsFontHeightF
p1735
aVgsnPanelFigureStringsJust
p1736
aVgsnPanelFigureStringsPerimOn
p1737
aVgsnPanelLabelBar
p1738
aVgsnPanelLeft
p1739
aVgsnPanelMainFont
p1740
aVgsnPanelMainFontColor
p1741
aVgsnPanelMainFontHeightF
p1742
aVgsnPanelMainString
p1743
aVgsnPanelRight
p1744
aVgsnPanelRowSpec
p1745
aVgsnPanelScalePlotIndex
p1746
aVgsnPanelTop
p1747
aVgsnPanelXF
p1748
aVgsnPanelXWhiteSpacePercent
p1749
aVgsnPanelYF
p1750
aVgsnPanelYWhiteSpacePercent
p1751
aVgsnPaperHeight
p1752
aVgsnPaperMargin
p1753
aVgsnPaperOrientation
p1754
aVgsnPaperWidth
p1755
aVgsnPolar
p1756
aVgsnPolarLabelDistance
p1757
aVgsnPolarLabelFont
p1758
aVgsnPolarLabelFontHeightF
p1759
aVgsnPolarLabelSpacing
p1760
aVgsnPolarTime
p1761
aVgsnPolarUT
p1762
aVgsnRightString
p1763
aVgsnRightStringFontColor
p1764
aVgsnRightStringFontHeightF
p1765
aVgsnRightStringFuncCode
p1766
aVgsnRightStringOrthogonalPosF
p1767
aVgsnRightStringParallelPosF
p1768
aVgsnScalarContour
p1769
aVgsnScale
p1770
aVgsnShape
p1771
aVgsnSpreadColorEnd
p1772
aVgsnSpreadColorStart
p1773
aVgsnSpreadColors
p1774
aVgsnStringFont
p1775
aVgsnStringFontColor
p1776
aVgsnStringFontHeightF
p1777
aVgsnStringFuncCode
p1778
aVgsnTickMarksOn
p1779
aVgsnXAxisIrregular2Linear
p1780
aVgsnXAxisIrregular2Log
p1781
aVgsnXRefLine
p1782
aVgsnXRefLineColor
p1783
aVgsnXRefLineDashPattern
p1784
aVgsnXRefLineThicknessF
p1785
aVgsnXYAboveFillColors
p1786
aVgsnXYBarChart
p1787
aVgsnXYBarChartBarWidth
p1788
aVgsnXYBarChartColors
p1789
aVgsnXYBarChartColors2
p1790
aVgsnXYBarChartFillDotSizeF
p1791
aVgsnXYBarChartFillLineThicknessF
p1792
aVgsnXYBarChartFillOpacityF
p1793
aVgsnXYBarChartFillScaleF
p1794
aVgsnXYBarChartOutlineOnly
p1795
aVgsnXYBarChartOutlineThicknessF
p1796
aVgsnXYBarChartPatterns
p1797
aVgsnXYBarChartPatterns2
p1798
aVgsnXYBelowFillColors
p1799
aVgsnXYFillColors
p1800
aVgsnXYFillOpacities
p1801
aVgsnXYLeftFillColors
p1802
aVgsnXYRightFillColors
p1803
aVgsnYAxisIrregular2Linear
p1804
aVgsnYAxisIrregular2Log
p1805
aVgsnYRefLine
p1806
aVgsnYRefLineColor
p1807
aVgsnYRefLineColors
p1808
aVgsnYRefLineDashPattern
p1809
aVgsnYRefLineDashPatterns
p1810
aVgsnYRefLineThicknessF
p1811
aVgsnYRefLineThicknesses
p1812
aVgsnZonalMean
p1813
aVgsnZonalMeanXMaxF
p1814
aVgsnZonalMeanXMinF
p1815
aVgsnZonalMeanYRefLine
p1816
aVlbAutoManage
p1817
aVlbBottomMarginF
p1818
aVlbBoxCount
p1819
aVlbBoxEndCapStyle
p1820
aVlbBoxFractions
p1821
aVlbBoxLineColor
p1822
aVlbBoxLineDashPattern
p1823
aVlbBoxLineDashSegLenF
p1824
aVlbBoxLineThicknessF
p1825
aVlbBoxLinesOn
p1826
aVlbBoxMajorExtentF
p1827
aVlbBoxMinorExtentF
p1828
aVlbBoxSeparatorLinesOn
p1829
aVlbBoxSizing
p1830
aVlbFillBackground
p1831
aVlbFillColor
p1832
aVlbFillColors
p1833
aVlbFillDotSizeF
p1834
aVlbFillLineThicknessF
p1835
aVlbFillPattern
p1836
aVlbFillPatterns
p1837
aVlbFillScaleF
p1838
aVlbFillScales
p1839
aVlbJustification
p1840
aVlbLabelAlignment
p1841
aVlbLabelAngleF
p1842
aVlbLabelAutoStride
p1843
aVlbLabelBarOn
p1844
aVlbLabelConstantSpacingF
p1845
aVlbLabelDirection
p1846
aVlbLabelFont
p1847
aVlbLabelFontAspectF
p1848
aVlbLabelFontColor
p1849
aVlbLabelFontHeightF
p1850
aVlbLabelFontQuality
p1851
aVlbLabelFontThicknessF
p1852
aVlbLabelFuncCode
p1853
aVlbLabelJust
p1854
aVlbLabelOffsetF
p1855
aVlbLabelPosition
p1856
aVlbLabelStride
p1857
aVlbLabelStrings
p1858
aVlbLabelsOn
p1859
aVlbLeftMarginF
p1860
aVlbMaxLabelLenF
p1861
aVlbMinLabelSpacingF
p1862
aVlbMonoFillColor
p1863
aVlbMonoFillPattern
p1864
aVlbMonoFillScale
p1865
aVlbOrientation
p1866
aVlbPerimColor
p1867
aVlbPerimDashPattern
p1868
aVlbPerimDashSegLenF
p1869
aVlbPerimFill
p1870
aVlbPerimFillColor
p1871
aVlbPerimOn
p1872
aVlbPerimThicknessF
p1873
aVlbRasterFillOn
p1874
aVlbRightMarginF
p1875
aVlbTitleAngleF
p1876
aVlbTitleConstantSpacingF
p1877
aVlbTitleDirection
p1878
aVlbTitleExtentF
p1879
aVlbTitleFont
p1880
aVlbTitleFontAspectF
p1881
aVlbTitleFontColor
p1882
aVlbTitleFontHeightF
p1883
aVlbTitleFontQuality
p1884
aVlbTitleFontThicknessF
p1885
aVlbTitleFuncCode
p1886
aVlbTitleJust
p1887
aVlbTitleOffsetF
p1888
aVlbTitleOn
p1889
aVlbTitlePosition
p1890
aVlbTitleString
p1891
aVlbTopMarginF
p1892
aVlgAutoManage
p1893
aVlgBottomMarginF
p1894
aVlgBoxBackground
p1895
aVlgBoxLineColor
p1896
aVlgBoxLineDashPattern
p1897
aVlgBoxLineDashSegLenF
p1898
aVlgBoxLineThicknessF
p1899
aVlgBoxLinesOn
p1900
aVlgBoxMajorExtentF
p1901
aVlgBoxMinorExtentF
p1902
aVlgDashIndex
p1903
aVlgDashIndexes
p1904
aVlgItemCount
p1905
aVlgItemOrder
p1906
aVlgItemPlacement
p1907
aVlgItemPositions
p1908
aVlgItemType
p1909
aVlgItemTypes
p1910
aVlgJustification
p1911
aVlgLabelAlignment
p1912
aVlgLabelAngleF
p1913
aVlgLabelAutoStride
p1914
aVlgLabelConstantSpacingF
p1915
aVlgLabelDirection
p1916
aVlgLabelFont
p1917
aVlgLabelFontAspectF
p1918
aVlgLabelFontColor
p1919
aVlgLabelFontHeightF
p1920
aVlgLabelFontQuality
p1921
aVlgLabelFontThicknessF
p1922
aVlgLabelFuncCode
p1923
aVlgLabelJust
p1924
aVlgLabelOffsetF
p1925
aVlgLabelPosition
p1926
aVlgLabelStride
p1927
aVlgLabelStrings
p1928
aVlgLabelsOn
p1929
aVlgLeftMarginF
p1930
aVlgLegendOn
p1931
aVlgLineColor
p1932
aVlgLineColors
p1933
aVlgLineDashSegLenF
p1934
aVlgLineDashSegLens
p1935
aVlgLineLabelConstantSpacingF
p1936
aVlgLineLabelFont
p1937
aVlgLineLabelFontAspectF
p1938
aVlgLineLabelFontColor
p1939
aVlgLineLabelFontColors
p1940
aVlgLineLabelFontHeightF
p1941
aVlgLineLabelFontHeights
p1942
aVlgLineLabelFontQuality
p1943
aVlgLineLabelFontThicknessF
p1944
aVlgLineLabelFuncCode
p1945
aVlgLineLabelStrings
p1946
aVlgLineLabelsOn
p1947
aVlgLineThicknessF
p1948
aVlgLineThicknesses
p1949
aVlgMarkerColor
p1950
aVlgMarkerColors
p1951
aVlgMarkerIndex
p1952
aVlgMarkerIndexes
p1953
aVlgMarkerSizeF
p1954
aVlgMarkerSizes
p1955
aVlgMarkerThicknessF
p1956
aVlgMarkerThicknesses
p1957
aVlgMonoDashIndex
p1958
aVlgMonoItemType
p1959
aVlgMonoLineColor
p1960
aVlgMonoLineDashSegLen
p1961
aVlgMonoLineLabelFontColor
p1962
aVlgMonoLineLabelFontHeight
p1963
aVlgMonoLineThickness
p1964
aVlgMonoMarkerColor
p1965
aVlgMonoMarkerIndex
p1966
aVlgMonoMarkerSize
p1967
aVlgMonoMarkerThickness
p1968
aVlgOrientation
p1969
aVlgPerimColor
p1970
aVlgPerimDashPattern
p1971
aVlgPerimDashSegLenF
p1972
aVlgPerimFill
p1973
aVlgPerimFillColor
p1974
aVlgPerimOn
p1975
aVlgPerimThicknessF
p1976
aVlgRightMarginF
p1977
aVlgTitleAngleF
p1978
aVlgTitleConstantSpacingF
p1979
aVlgTitleDirection
p1980
aVlgTitleExtentF
p1981
aVlgTitleFont
p1982
aVlgTitleFontAspectF
p1983
aVlgTitleFontColor
p1984
aVlgTitleFontHeightF
p1985
aVlgTitleFontQuality
p1986
aVlgTitleFontThicknessF
p1987
aVlgTitleFuncCode
p1988
aVlgTitleJust
p1989
aVlgTitleOffsetF
p1990
aVlgTitleOn
p1991
aVlgTitlePosition
p1992
aVlgTitleString
p1993
aVlgTopMarginF
p1994
aVmpAreaGroupCount
p1995
aVmpAreaMaskingOn
p1996
aVmpAreaNames
p1997
aVmpAreaTypes
p1998
aVmpBottomAngleF
p1999
aVmpBottomMapPosF
p2000
aVmpBottomNDCF
p2001
aVmpBottomNPCF
p2002
aVmpBottomPointLatF
p2003
aVmpBottomPointLonF
p2004
aVmpBottomWindowF
p2005
aVmpCenterLatF
p2006
aVmpCenterLonF
p2007
aVmpCenterRotF
p2008
aVmpCountyLineColor
p2009
aVmpCountyLineDashPattern
p2010
aVmpCountyLineDashSegLenF
p2011
aVmpCountyLineThicknessF
p2012
aVmpDataBaseVersion
p2013
aVmpDataResolution
p2014
aVmpDataSetName
p2015
aVmpDefaultFillColor
p2016
aVmpDefaultFillPattern
p2017
aVmpDefaultFillScaleF
p2018
aVmpDynamicAreaGroups
p2019
aVmpEllipticalBoundary
p2020
aVmpFillAreaSpecifiers
p2021
aVmpFillBoundarySets
p2022
aVmpFillColor
p2023
aVmpFillColors
p2024
aVmpFillDotSizeF
p2025
aVmpFillDrawOrder
p2026
aVmpFillOn
p2027
aVmpFillPatternBackground
p2028
aVmpFillPattern
p2029
aVmpFillPatterns
p2030
aVmpFillScaleF
p2031
aVmpFillScales
p2032
aVmpFixedAreaGroups
p2033
aVmpGeophysicalLineColor
p2034
aVmpGeophysicalLineDashPattern
p2035
aVmpGeophysicalLineDashSegLenF
p2036
aVmpGeophysicalLineThicknessF
p2037
aVmpGreatCircleLinesOn
p2038
aVmpGridAndLimbDrawOrder
p2039
aVmpGridAndLimbOn
p2040
aVmpGridLatSpacingF
p2041
aVmpGridLineColor
p2042
aVmpGridLineDashPattern
p2043
aVmpGridLineDashSegLenF
p2044
aVmpGridLineThicknessF
p2045
aVmpGridLonSpacingF
p2046
aVmpGridMaskMode
p2047
aVmpGridMaxLatF
p2048
aVmpGridPolarLonSpacingF
p2049
aVmpGridSpacingF
p2050
aVmpInlandWaterFillColor
p2051
aVmpInlandWaterFillPattern
p2052
aVmpInlandWaterFillScaleF
p2053
aVmpLabelDrawOrder
p2054
aVmpLabelFontColor
p2055
aVmpLabelFontHeightF
p2056
aVmpLabelsOn
p2057
aVmpLambertMeridianF
p2058
aVmpLambertParallel1F
p2059
aVmpLambertParallel2F
p2060
aVmpLandFillColor
p2061
aVmpLandFillPattern
p2062
aVmpLandFillScaleF
p2063
aVmpLeftAngleF
p2064
aVmpLeftCornerLatF
p2065
aVmpLeftCornerLonF
p2066
aVmpLeftMapPosF
p2067
aVmpLeftNDCF
p2068
aVmpLeftNPCF
p2069
aVmpLeftPointLatF
p2070
aVmpLeftPointLonF
p2071
aVmpLeftWindowF
p2072
aVmpLimbLineColor
p2073
aVmpLimbLineDashPattern
p2074
aVmpLimbLineDashSegLenF
p2075
aVmpLimbLineThicknessF
p2076
aVmpLimitMode
p2077
aVmpMaskAreaSpecifiers
p2078
aVmpMaskOutlineSpecifiers
p2079
aVmpMaxLatF
p2080
aVmpMaxLonF
p2081
aVmpMinLatF
p2082
aVmpMinLonF
p2083
aVmpMonoFillColor
p2084
aVmpMonoFillPattern
p2085
aVmpMonoFillScale
p2086
aVmpNationalLineColor
p2087
aVmpNationalLineDashPattern
p2088
aVmpNationalLineDashSegLenF
p2089
aVmpNationalLineThicknessF
p2090
aVmpOceanFillColor
p2091
aVmpOceanFillPattern
p2092
aVmpOceanFillScaleF
p2093
aVmpOutlineBoundarySets
p2094
aVmpOutlineDrawOrder
p2095
aVmpOutlineMaskingOn
p2096
aVmpOutlineOn
p2097
aVmpOutlineSpecifiers
p2098
aVmpPerimDrawOrder
p2099
aVmpPerimLineColor
p2100
aVmpPerimLineDashPattern
p2101
aVmpPerimLineDashSegLenF
p2102
aVmpPerimLineThicknessF
p2103
aVmpPerimOn
p2104
aVmpPolyMode
p2105
aVmpProjection
p2106
aVmpProvincialLineColor
p2107
aVmpProvincialLineDashPattern
p2108
aVmpProvincialLineDashSegLenF
p2109
aVmpProvincialLineThicknessF
p2110
aVmpRelativeCenterLat
p2111
aVmpRelativeCenterLon
p2112
aVmpRightAngleF
p2113
aVmpRightCornerLatF
p2114
aVmpRightCornerLonF
p2115
aVmpRightMapPosF
p2116
aVmpRightNDCF
p2117
aVmpRightNPCF
p2118
aVmpRightPointLatF
p2119
aVmpRightPointLonF
p2120
aVmpRightWindowF
p2121
aVmpSatelliteAngle1F
p2122
aVmpSatelliteAngle2F
p2123
aVmpSatelliteDistF
p2124
aVmpShapeMode
p2125
aVmpSpecifiedFillColors
p2126
aVmpSpecifiedFillDirectIndexing
p2127
aVmpSpecifiedFillPatterns
p2128
aVmpSpecifiedFillPriority
p2129
aVmpSpecifiedFillScales
p2130
aVmpTopAngleF
p2131
aVmpTopMapPosF
p2132
aVmpTopNDCF
p2133
aVmpTopNPCF
p2134
aVmpTopPointLatF
p2135
aVmpTopPointLonF
p2136
aVmpTopWindowF
p2137
aVmpUSStateLineColor
p2138
aVmpUSStateLineDashPattern
p2139
aVmpUSStateLineDashSegLenF
p2140
aVmpUSStateLineThicknessF
p2141
aVpmAnnoManagers
p2142
aVpmAnnoViews
p2143
aVpmLabelBarDisplayMode
p2144
aVpmLabelBarHeightF
p2145
aVpmLabelBarKeepAspect
p2146
aVpmLabelBarOrthogonalPosF
p2147
aVpmLabelBarParallelPosF
p2148
aVpmLabelBarSide
p2149
aVpmLabelBarWidthF
p2150
aVpmLabelBarZone
p2151
aVpmLegendDisplayMode
p2152
aVpmLegendHeightF
p2153
aVpmLegendKeepAspect
p2154
aVpmLegendOrthogonalPosF
p2155
aVpmLegendParallelPosF
p2156
aVpmLegendSide
p2157
aVpmLegendWidthF
p2158
aVpmLegendZone
p2159
aVpmOverlaySequenceIds
p2160
aVpmTickMarkDisplayMode
p2161
aVpmTickMarkZone
p2162
aVpmTitleDisplayMode
p2163
aVpmTitleZone
p2164
aVprGraphicStyle
p2165
aVprPolyType
p2166
aVprXArray
p2167
aVprYArray
p2168
aVsfCopyData
p2169
aVsfCopyData
p2170
aVsfDataArray
p2171
aVsfDataArray
p2172
aVsfDataMaxV
p2173
aVsfDataMaxV
p2174
aVsfDataMinV
p2175
aVsfDataMinV
p2176
aVsfElementNodes
p2177
aVsfExchangeDimensions
p2178
aVsfFirstNodeIndex
p2179
aVsfMissingValueV
p2180
aVsfMissingValueV
p2181
aVsfXArray
p2182
aVsfXArray
p2183
aVsfXCActualEndF
p2184
aVsfXCActualEndF
p2185
aVsfXCActualStartF
p2186
aVsfXCActualStartF
p2187
aVsfXCEndIndex
p2188
aVsfXCEndSubsetV
p2189
aVsfXCEndV
p2190
aVsfXCStartIndex
p2191
aVsfXCStartSubsetV
p2192
aVsfXCStartV
p2193
aVsfXCStride
p2194
aVsfXCellBounds
p2195
aVsfYArray
p2196
aVsfYArray
p2197
aVsfYCActualEndF
p2198
aVsfYCActualEndF
p2199
aVsfYCActualStartF
p2200
aVsfYCActualStartF
p2201
aVsfYCEndIndex
p2202
aVsfYCEndSubsetV
p2203
aVsfYCEndV
p2204
aVsfYCStartIndex
p2205
aVsfYCStartSubsetV
p2206
aVsfYCStartV
p2207
aVsfYCStride
p2208
aVsfYCellBounds
p2209
aVstArrowLengthF
p2210
aVstArrowStride
p2211
aVstCrossoverCheckCount
p2212
aVstExplicitLabelBarLabelsOn
p2213
aVstLabelBarEndLabelsOn
p2214
aVstLabelFormat
p2215
aVstLengthCheckCount
p2216
aVstLevelColors
p2217
aVstLevelCount
p2218
aVstLevelPalette
p2219
aVstLevelSelectionMode
p2220
aVstLevelSpacingF
p2221
aVstLevels
p2222
aVstLineColor
p2223
aVstLineOpacityF
p2224
aVstLineStartStride
p2225
aVstLineThicknessF
p2226
aVstMapDirection
p2227
aVstMaxLevelCount
p2228
aVstMaxLevelValF
p2229
aVstMinArrowSpacingF
p2230
aVstMinDistanceF
p2231
aVstMinLevelValF
p2232
aVstMinLineSpacingF
p2233
aVstMinStepFactorF
p2234
aVstMonoLineColor
p2235
aVstNoDataLabelOn
p2236
aVstNoDataLabelString
p2237
aVstScalarFieldData
p2238
aVstScalarMissingValColor
p2239
aVstSpanLevelPalette
p2240
aVstStepSizeF
p2241
aVstStreamlineDrawOrder
p2242
aVstUseScalarArray
p2243
aVstVectorFieldData
p2244
aVstZeroFLabelAngleF
p2245
aVstZeroFLabelBackgroundColor
p2246
aVstZeroFLabelConstantSpacingF
p2247
aVstZeroFLabelFont
p2248
aVstZeroFLabelFontAspectF
p2249
aVstZeroFLabelFontColor
p2250
aVstZeroFLabelFontHeightF
p2251
aVstZeroFLabelFontQuality
p2252
aVstZeroFLabelFontThicknessF
p2253
aVstZeroFLabelFuncCode
p2254
aVstZeroFLabelJust
p2255
aVstZeroFLabelOn
p2256
aVstZeroFLabelOrthogonalPosF
p2257
aVstZeroFLabelParallelPosF
p2258
aVstZeroFLabelPerimColor
p2259
aVstZeroFLabelPerimOn
p2260
aVstZeroFLabelPerimSpaceF
p2261
aVstZeroFLabelPerimThicknessF
p2262
aVstZeroFLabelSide
p2263
aVstZeroFLabelString
p2264
aVstZeroFLabelTextDirection
p2265
aVstZeroFLabelZone
p2266
aVtfDoNDCOverlay
p2267
aVtfPlotManagerOn
p2268
aVtfPolyDrawList
p2269
aVtfPolyDrawOrder
p2270
aVtiDeltaF
p2271
aVtiMainAngleF
p2272
aVtiMainConstantSpacingF
p2273
aVtiMainDirection
p2274
aVtiMainFont
p2275
aVtiMainFontAspectF
p2276
aVtiMainFontColor
p2277
aVtiMainFontHeightF
p2278
aVtiMainFontQuality
p2279
aVtiMainFontThicknessF
p2280
aVtiMainFuncCode
p2281
aVtiMainJust
p2282
aVtiMainOffsetXF
p2283
aVtiMainOffsetYF
p2284
aVtiMainOn
p2285
aVtiMainPosition
p2286
aVtiMainSide
p2287
aVtiMainString
p2288
aVtiUseMainAttributes
p2289
aVtiXAxisAngleF
p2290
aVtiXAxisConstantSpacingF
p2291
aVtiXAxisDirection
p2292
aVtiXAxisFont
p2293
aVtiXAxisFontAspectF
p2294
aVtiXAxisFontColor
p2295
aVtiXAxisFontHeightF
p2296
aVtiXAxisFontQuality
p2297
aVtiXAxisFontThicknessF
p2298
aVtiXAxisFuncCode
p2299
aVtiXAxisJust
p2300
aVtiXAxisOffsetXF
p2301
aVtiXAxisOffsetYF
p2302
aVtiXAxisOn
p2303
aVtiXAxisPosition
p2304
aVtiXAxisSide
p2305
aVtiXAxisString
p2306
aVtiYAxisAngleF
p2307
aVtiYAxisConstantSpacingF
p2308
aVtiYAxisDirection
p2309
aVtiYAxisFont
p2310
aVtiYAxisFontAspectF
p2311
aVtiYAxisFontColor
p2312
aVtiYAxisFontHeightF
p2313
aVtiYAxisFontQuality
p2314
aVtiYAxisFontThicknessF
p2315
aVtiYAxisFuncCode
p2316
aVtiYAxisJust
p2317
aVtiYAxisOffsetXF
p2318
aVtiYAxisOffsetYF
p2319
aVtiYAxisOn
p2320
aVtiYAxisPosition
p2321
aVtiYAxisSide
p2322
aVtiYAxisString
p2323
aVtmBorderLineColor
p2324
aVtmBorderThicknessF
p2325
aVtmEqualizeXYSizes
p2326
aVtmLabelAutoStride
p2327
aVtmSciNoteCutoff
p2328
aVtmXBAutoPrecision
p2329
aVtmXBBorderOn
p2330
aVtmXBDataLeftF
p2331
aVtmXBDataRightF
p2332
aVtmXBFormat
p2333
aVtmXBIrrTensionF
p2334
aVtmXBIrregularPoints
p2335
aVtmXBLabelAngleF
p2336
aVtmXBLabelConstantSpacingF
p2337
aVtmXBLabelDeltaF
p2338
aVtmXBLabelDirection
p2339
aVtmXBLabelFont
p2340
aVtmXBLabelFontAspectF
p2341
aVtmXBLabelFontColor
p2342
aVtmXBLabelFontHeightF
p2343
aVtmXBLabelFontQuality
p2344
aVtmXBLabelFontThicknessF
p2345
aVtmXBLabelFuncCode
p2346
aVtmXBLabelJust
p2347
aVtmXBLabelStride
p2348
aVtmXBLabels
p2349
aVtmXBLabelsOn
p2350
aVtmXBMajorLengthF
p2351
aVtmXBMajorLineColor
p2352
aVtmXBMajorOutwardLengthF
p2353
aVtmXBMajorThicknessF
p2354
aVtmXBMaxLabelLenF
p2355
aVtmXBMaxTicks
p2356
aVtmXBMinLabelSpacingF
p2357
aVtmXBMinorLengthF
p2358
aVtmXBMinorLineColor
p2359
aVtmXBMinorOn
p2360
aVtmXBMinorOutwardLengthF
p2361
aVtmXBMinorPerMajor
p2362
aVtmXBMinorThicknessF
p2363
aVtmXBMinorValues
p2364
aVtmXBMode
p2365
aVtmXBOn
p2366
aVtmXBPrecision
p2367
aVtmXBStyle
p2368
aVtmXBTickEndF
p2369
aVtmXBTickSpacingF
p2370
aVtmXBTickStartF
p2371
aVtmXBValues
p2372
aVtmXMajorGrid
p2373
aVtmXMajorGridLineColor
p2374
aVtmXMajorGridLineDashPattern
p2375
aVtmXMajorGridThicknessF
p2376
aVtmXMinorGrid
p2377
aVtmXMinorGridLineColor
p2378
aVtmXMinorGridLineDashPattern
p2379
aVtmXMinorGridThicknessF
p2380
aVtmXTAutoPrecision
p2381
aVtmXTBorderOn
p2382
aVtmXTDataLeftF
p2383
aVtmXTDataRightF
p2384
aVtmXTFormat
p2385
aVtmXTIrrTensionF
p2386
aVtmXTIrregularPoints
p2387
aVtmXTLabelAngleF
p2388
aVtmXTLabelConstantSpacingF
p2389
aVtmXTLabelDeltaF
p2390
aVtmXTLabelDirection
p2391
aVtmXTLabelFont
p2392
aVtmXTLabelFontAspectF
p2393
aVtmXTLabelFontColor
p2394
aVtmXTLabelFontHeightF
p2395
aVtmXTLabelFontQuality
p2396
aVtmXTLabelFontThicknessF
p2397
aVtmXTLabelFuncCode
p2398
aVtmXTLabelJust
p2399
aVtmXTLabelStride
p2400
aVtmXTLabels
p2401
aVtmXTLabelsOn
p2402
aVtmXTMajorLengthF
p2403
aVtmXTMajorLineColor
p2404
aVtmXTMajorOutwardLengthF
p2405
aVtmXTMajorThicknessF
p2406
aVtmXTMaxLabelLenF
p2407
aVtmXTMaxTicks
p2408
aVtmXTMinLabelSpacingF
p2409
aVtmXTMinorLengthF
p2410
aVtmXTMinorLineColor
p2411
aVtmXTMinorOn
p2412
aVtmXTMinorOutwardLengthF
p2413
aVtmXTMinorPerMajor
p2414
aVtmXTMinorThicknessF
p2415
aVtmXTMinorValues
p2416
aVtmXTMode
p2417
aVtmXTOn
p2418
aVtmXTPrecision
p2419
aVtmXTStyle
p2420
aVtmXTTickEndF
p2421
aVtmXTTickSpacingF
p2422
aVtmXTTickStartF
p2423
aVtmXTValues
p2424
aVtmXUseBottom
p2425
aVtmYLAutoPrecision
p2426
aVtmYLBorderOn
p2427
aVtmYLDataBottomF
p2428
aVtmYLDataTopF
p2429
aVtmYLFormat
p2430
aVtmYLIrrTensionF
p2431
aVtmYLIrregularPoints
p2432
aVtmYLLabelAngleF
p2433
aVtmYLLabelConstantSpacingF
p2434
aVtmYLLabelDeltaF
p2435
aVtmYLLabelDirection
p2436
aVtmYLLabelFont
p2437
aVtmYLLabelFontAspectF
p2438
aVtmYLLabelFontColor
p2439
aVtmYLLabelFontHeightF
p2440
aVtmYLLabelFontQuality
p2441
aVtmYLLabelFontThicknessF
p2442
aVtmYLLabelFuncCode
p2443
aVtmYLLabelJust
p2444
aVtmYLLabelStride
p2445
aVtmYLLabels
p2446
aVtmYLLabelsOn
p2447
aVtmYLMajorLengthF
p2448
aVtmYLMajorLineColor
p2449
aVtmYLMajorOutwardLengthF
p2450
aVtmYLMajorThicknessF
p2451
aVtmYLMaxLabelLenF
p2452
aVtmYLMaxTicks
p2453
aVtmYLMinLabelSpacingF
p2454
aVtmYLMinorLengthF
p2455
aVtmYLMinorLineColor
p2456
aVtmYLMinorOn
p2457
aVtmYLMinorOutwardLengthF
p2458
aVtmYLMinorPerMajor
p2459
aVtmYLMinorThicknessF
p2460
aVtmYLMinorValues
p2461
aVtmYLMode
p2462
aVtmYLOn
p2463
aVtmYLPrecision
p2464
aVtmYLStyle
p2465
aVtmYLTickEndF
p2466
aVtmYLTickSpacingF
p2467
aVtmYLTickStartF
p2468
aVtmYLValues
p2469
aVtmYMajorGrid
p2470
aVtmYMajorGridLineColor
p2471
aVtmYMajorGridLineDashPattern
p2472
aVtmYMajorGridThicknessF
p2473
aVtmYMinorGrid
p2474
aVtmYMinorGridLineColor
p2475
aVtmYMinorGridLineDashPattern
p2476
aVtmYMinorGridThicknessF
p2477
aVtmYRAutoPrecision
p2478
aVtmYRBorderOn
p2479
aVtmYRDataBottomF
p2480
aVtmYRDataTopF
p2481
aVtmYRFormat
p2482
aVtmYRIrrTensionF
p2483
aVtmYRIrregularPoints
p2484
aVtmYRLabelAngleF
p2485
aVtmYRLabelConstantSpacingF
p2486
aVtmYRLabelDeltaF
p2487
aVtmYRLabelDirection
p2488
aVtmYRLabelFont
p2489
aVtmYRLabelFontAspectF
p2490
aVtmYRLabelFontColor
p2491
aVtmYRLabelFontHeightF
p2492
aVtmYRLabelFontQuality
p2493
aVtmYRLabelFontThicknessF
p2494
aVtmYRLabelFuncCode
p2495
aVtmYRLabelJust
p2496
aVtmYRLabelStride
p2497
aVtmYRLabels
p2498
aVtmYRLabelsOn
p2499
aVtmYRMajorLengthF
p2500
aVtmYRMajorLineColor
p2501
aVtmYRMajorOutwardLengthF
p2502
aVtmYRMajorThicknessF
p2503
aVtmYRMaxLabelLenF
p2504
aVtmYRMaxTicks
p2505
aVtmYRMinLabelSpacingF
p2506
aVtmYRMinorLengthF
p2507
aVtmYRMinorLineColor
p2508
aVtmYRMinorOn
p2509
aVtmYRMinorOutwardLengthF
p2510
aVtmYRMinorPerMajor
p2511
aVtmYRMinorThicknessF
p2512
aVtmYRMinorValues
p2513
aVtmYRMode
p2514
aVtmYROn
p2515
aVtmYRPrecision
p2516
aVtmYRStyle
p2517
aVtmYRTickEndF
p2518
aVtmYRTickSpacingF
p2519
aVtmYRTickStartF
p2520
aVtmYRValues
p2521
aVtmYUseLeft
p2522
aVtrGridType
p2523
aVtrLineInterpolationOn
p2524
aVtrXAxisType
p2525
aVtrXCoordPoints
p2526
aVtrXInterPoints
p2527
aVtrXLog
p2528
aVtrXMaxF
p2529
aVtrXMinF
p2530
aVtrXReverse
p2531
aVtrXSamples
p2532
aVtrXTensionF
p2533
aVtrYAxisType
p2534
aVtrYCoordPoints
p2535
aVtrYInterPoints
p2536
aVtrYLog
p2537
aVtrYMaxF
p2538
aVtrYMinF
p2539
aVtrYReverse
p2540
aVtrYSamples
p2541
aVtrYTensionF
p2542
aVtxAngleF
p2543
aVtxBackgroundFillColor
p2544
aVtxConstantSpacingF
p2545
aVtxDirection
p2546
aVtxFont
p2547
aVtxFontAspectF
p2548
aVtxFontColor
p2549
aVtxFontHeightF
p2550
aVtxFontOpacityF
p2551
aVtxFontQuality
p2552
aVtxFontThicknessF
p2553
aVtxFuncCode
p2554
aVtxJust
p2555
aVtxPerimColor
p2556
aVtxPerimDashLengthF
p2557
aVtxPerimDashPattern
p2558
aVtxPerimOn
p2559
aVtxPerimSpaceF
p2560
aVtxPerimThicknessF
p2561
aVtxPosXF
p2562
aVtxPosYF
p2563
aVtxString
p2564
aVvcExplicitLabelBarLabelsOn
p2565
aVvcFillArrowEdgeColor
p2566
aVvcFillArrowEdgeThicknessF
p2567
aVvcFillArrowFillColor
p2568
aVvcFillArrowHeadInteriorXF
p2569
aVvcFillArrowHeadMinFracXF
p2570
aVvcFillArrowHeadMinFracYF
p2571
aVvcFillArrowHeadXF
p2572
aVvcFillArrowHeadYF
p2573
aVvcFillArrowMinFracWidthF
p2574
aVvcFillArrowWidthF
p2575
aVvcFillArrowsOn
p2576
aVvcFillOverEdge
p2577
aVvcGlyphOpacityF
p2578
aVvcGlyphStyle
p2579
aVvcLabelBarEndLabelsOn
p2580
aVvcLabelFontColor
p2581
aVvcLabelFontHeightF
p2582
aVvcLabelsOn
p2583
aVvcLabelsUseVectorColor
p2584
aVvcLevelColors
p2585
aVvcLevelCount
p2586
aVvcLevelPalette
p2587
aVvcLevelSelectionMode
p2588
aVvcLevelSpacingF
p2589
aVvcLevels
p2590
aVvcLineArrowColor
p2591
aVvcLineArrowHeadMaxSizeF
p2592
aVvcLineArrowHeadMinSizeF
p2593
aVvcLineArrowThicknessF
p2594
aVvcMagnitudeFormat
p2595
aVvcMagnitudeScaleFactorF
p2596
aVvcMagnitudeScaleValueF
p2597
aVvcMagnitudeScalingMode
p2598
aVvcMapDirection
p2599
aVvcMaxLevelCount
p2600
aVvcMaxLevelValF
p2601
aVvcMaxMagnitudeF
p2602
aVvcMinAnnoAngleF
p2603
aVvcMinAnnoArrowAngleF
p2604
aVvcMinAnnoArrowEdgeColor
p2605
aVvcMinAnnoArrowFillColor
p2606
aVvcMinAnnoArrowLineColor
p2607
aVvcMinAnnoArrowMinOffsetF
p2608
aVvcMinAnnoArrowSpaceF
p2609
aVvcMinAnnoArrowUseVecColor
p2610
aVvcMinAnnoBackgroundColor
p2611
aVvcMinAnnoConstantSpacingF
p2612
aVvcMinAnnoExplicitMagnitudeF
p2613
aVvcMinAnnoFont
p2614
aVvcMinAnnoFontAspectF
p2615
aVvcMinAnnoFontColor
p2616
aVvcMinAnnoFontHeightF
p2617
aVvcMinAnnoFontQuality
p2618
aVvcMinAnnoFontThicknessF
p2619
aVvcMinAnnoFuncCode
p2620
aVvcMinAnnoJust
p2621
aVvcMinAnnoOn
p2622
aVvcMinAnnoOrientation
p2623
aVvcMinAnnoOrthogonalPosF
p2624
aVvcMinAnnoParallelPosF
p2625
aVvcMinAnnoPerimColor
p2626
aVvcMinAnnoPerimOn
p2627
aVvcMinAnnoPerimSpaceF
p2628
aVvcMinAnnoPerimThicknessF
p2629
aVvcMinAnnoSide
p2630
aVvcMinAnnoString1
p2631
aVvcMinAnnoString1On
p2632
aVvcMinAnnoString2
p2633
aVvcMinAnnoString2On
p2634
aVvcMinAnnoTextDirection
p2635
aVvcMinAnnoZone
p2636
aVvcMinDistanceF
p2637
aVvcMinFracLengthF
p2638
aVvcMinLevelValF
p2639
aVvcMinMagnitudeF
p2640
aVvcMonoFillArrowEdgeColor
p2641
aVvcMonoFillArrowFillColor
p2642
aVvcMonoLineArrowColor
p2643
aVvcMonoWindBarbColor
p2644
aVvcNoDataLabelOn
p2645
aVvcNoDataLabelString
p2646
aVvcPositionMode
p2647
aVvcRefAnnoAngleF
p2648
aVvcRefAnnoArrowAngleF
p2649
aVvcRefAnnoArrowEdgeColor
p2650
aVvcRefAnnoArrowFillColor
p2651
aVvcRefAnnoArrowLineColor
p2652
aVvcRefAnnoArrowMinOffsetF
p2653
aVvcRefAnnoArrowSpaceF
p2654
aVvcRefAnnoArrowUseVecColor
p2655
aVvcRefAnnoBackgroundColor
p2656
aVvcRefAnnoConstantSpacingF
p2657
aVvcRefAnnoExplicitMagnitudeF
p2658
aVvcRefAnnoFont
p2659
aVvcRefAnnoFontAspectF
p2660
aVvcRefAnnoFontColor
p2661
aVvcRefAnnoFontHeightF
p2662
aVvcRefAnnoFontQuality
p2663
aVvcRefAnnoFontThicknessF
p2664
aVvcRefAnnoFuncCode
p2665
aVvcRefAnnoJust
p2666
aVvcRefAnnoOn
p2667
aVvcRefAnnoOrientation
p2668
aVvcRefAnnoOrthogonalPosF
p2669
aVvcRefAnnoParallelPosF
p2670
aVvcRefAnnoPerimColor
p2671
aVvcRefAnnoPerimOn
p2672
aVvcRefAnnoPerimSpaceF
p2673
aVvcRefAnnoPerimThicknessF
p2674
aVvcRefAnnoSide
p2675
aVvcRefAnnoString1
p2676
aVvcRefAnnoString1On
p2677
aVvcRefAnnoString2
p2678
aVvcRefAnnoString2On
p2679
aVvcRefAnnoTextDirection
p2680
aVvcRefAnnoZone
p2681
aVvcRefLengthF
p2682
aVvcRefMagnitudeF
p2683
aVvcScalarFieldData
p2684
aVvcScalarMissingValColor
p2685
aVvcScalarValueFormat
p2686
aVvcScalarValueScaleFactorF
p2687
aVvcScalarValueScaleValueF
p2688
aVvcScalarValueScalingMode
p2689
aVvcSpanLevelPalette
p2690
aVvcUseRefAnnoRes
p2691
aVvcUseScalarArray
p2692
aVvcVectorDrawOrder
p2693
aVvcVectorFieldData
p2694
aVvcWindBarbCalmCircleSizeF
p2695
aVvcWindBarbColor
p2696
aVvcWindBarbLineThicknessF
p2697
aVvcWindBarbScaleFactorF
p2698
aVvcWindBarbTickAngleF
p2699
aVvcWindBarbTickLengthF
p2700
aVvcWindBarbTickSpacingF
p2701
aVvcZeroFLabelAngleF
p2702
aVvcZeroFLabelBackgroundColor
p2703
aVvcZeroFLabelConstantSpacingF
p2704
aVvcZeroFLabelFont
p2705
aVvcZeroFLabelFontAspectF
p2706
aVvcZeroFLabelFontColor
p2707
aVvcZeroFLabelFontHeightF
p2708
aVvcZeroFLabelFontQuality
p2709
aVvcZeroFLabelFontThicknessF
p2710
aVvcZeroFLabelFuncCode
p2711
aVvcZeroFLabelJust
p2712
aVvcZeroFLabelOn
p2713
aVvcZeroFLabelOrthogonalPosF
p2714
aVvcZeroFLabelParallelPosF
p2715
aVvcZeroFLabelPerimColor
p2716
aVvcZeroFLabelPerimOn
p2717
aVvcZeroFLabelPerimSpaceF
p2718
aVvcZeroFLabelPerimThicknessF
p2719
aVvcZeroFLabelSide
p2720
aVvcZeroFLabelString
p2721
aVvcZeroFLabelTextDirection
p2722
aVvcZeroFLabelZone
p2723
aVvfCopyData
p2724
aVvfDataArray
p2725
aVvfExchangeDimensions
p2726
aVvfExchangeUVData
p2727
aVvfMagMaxV
p2728
aVvfMagMinV
p2729
aVvfMissingUValueV
p2730
aVvfMissingVValueV
p2731
aVvfPolarData
p2732
aVvfSingleMissingValue
p2733
aVvfUDataArray
p2734
aVvfUMaxV
p2735
aVvfUMinV
p2736
aVvfVDataArray
p2737
aVvfVMaxV
p2738
aVvfVMinV
p2739
aVvfXArray
p2740
aVvfXCActualEndF
p2741
aVvfXCActualStartF
p2742
aVvfXCEndIndex
p2743
aVvfXCEndSubsetV
p2744
aVvfXCEndV
p2745
aVvfXCStartIndex
p2746
aVvfXCStartSubsetV
p2747
aVvfXCStartV
p2748
aVvfXCStride
p2749
aVvfYArray
p2750
aVvfYCActualEndF
p2751
aVvfYCActualStartF
p2752
aVvfYCEndIndex
p2753
aVvfYCEndSubsetV
p2754
aVvfYCEndV
p2755
aVvfYCStartIndex
p2756
aVvfYCStartSubsetV
p2757
aVvfYCStartV
p2758
aVvfYCStride
p2759
aVvpAnnoManagerId
p2760
aVvpClipOn
p2761
aVvpHeightF
p2762
aVvpKeepAspect
p2763
aVvpOn
p2764
aVvpUseSegments
p2765
aVvpWidthF
p2766
aVvpXF
p2767
aVvpYF
p2768
aVwkAntiAlias
p2769
aVwkAntiAlias
p2770
aVwkAntiAlias
p2771
aVwkBackgroundColor
p2772
aVwkBackgroundOpacityF
p2773
aVwkBackgroundOpacityF
p2774
aVwkBackgroundOpacityF
p2775
aVwkColorMapLen
p2776
aVwkColorMap
p2777
aVwkColorModel
p2778
aVwkColorModel
p2779
aVwkDashTableLength
p2780
aVwkDefGraphicStyleId
p2781
aVwkDeviceLowerX
p2782
aVwkDeviceLowerX
p2783
aVwkDeviceLowerX
p2784
aVwkDeviceLowerY
p2785
aVwkDeviceLowerY
p2786
aVwkDeviceLowerY
p2787
aVwkDeviceUpperX
p2788
aVwkDeviceUpperX
p2789
aVwkDeviceUpperX
p2790
aVwkDeviceUpperY
p2791
aVwkDeviceUpperY
p2792
aVwkDeviceUpperY
p2793
aVwkFileName
p2794
aVwkFileName
p2795
aVwkFillTableLength
p2796
aVwkForegroundColor
p2797
aVwkFormat
p2798
aVwkFormat
p2799
aVwkFullBackground
p2800
aVwkFullBackground
p2801
aVwkGksWorkId
p2802
aVwkHeight
p2803
aVwkHeight
p2804
aVwkMarkerTableLength
p2805
aVwkMetaName
p2806
aVwkOrientation
p2807
aVwkOrientation
p2808
aVwkPDFFileName
p2809
aVwkPDFFormat
p2810
aVwkPDFResolution
p2811
aVwkPSFileName
p2812
aVwkPSFormat
p2813
aVwkPSResolution
p2814
aVwkPaperHeightF
p2815
aVwkPaperHeightF
p2816
aVwkPaperHeightF
p2817
aVwkPaperSize
p2818
aVwkPaperSize
p2819
aVwkPaperSize
p2820
aVwkPaperWidthF
p2821
aVwkPaperWidthF
p2822
aVwkPaperWidthF
p2823
aVwkPause
p2824
aVwkTopLevelViews
p2825
aVwkViews
p2826
aVwkVisualType
p2827
aVwkVisualType
p2828
aVwkWidth
p2829
aVwkWidth
p2830
aVwkWindowId
p2831
aVwkXColorMode
p2832
aVwsCurrentSize
p2833
aVwsMaximumSize
p2834
aVwsThresholdSize
p2835
aVxyComputeXMax
p2836
aVxyComputeXMin
p2837
aVxyComputeYMax
p2838
aVxyComputeYMin
p2839
aVxyCoordData
p2840
aVxyCoordDataSpec
p2841
aVxyCurveDrawOrder
p2842
aVxyDashPattern
p2843
aVxyDashPatterns
p2844
aVxyExplicitLabels
p2845
aVxyExplicitLegendLabels
p2846
aVxyLabelMode
p2847
aVxyLineColor
p2848
aVxyLineColors
p2849
aVxyLineDashSegLenF
p2850
aVxyLineLabelConstantSpacingF
p2851
aVxyLineLabelFont
p2852
aVxyLineLabelFontAspectF
p2853
aVxyLineLabelFontColor
p2854
aVxyLineLabelFontColors
p2855
aVxyLineLabelFontHeightF
p2856
aVxyLineLabelFontQuality
p2857
aVxyLineLabelFontThicknessF
p2858
aVxyLineLabelFuncCode
p2859
aVxyLineThicknessF
p2860
aVxyLineThicknesses
p2861
aVxyMarkLineMode
p2862
aVxyMarkLineModes
p2863
aVxyMarker
p2864
aVxyMarkerColor
p2865
aVxyMarkerColors
p2866
aVxyMarkerSizeF
p2867
aVxyMarkerSizes
p2868
aVxyMarkerThicknessF
p2869
aVxyMarkerThicknesses
p2870
aVxyMarkers
p2871
aVxyMonoDashPattern
p2872
aVxyMonoLineColor
p2873
aVxyMonoLineLabelFontColor
p2874
aVxyMonoLineThickness
p2875
aVxyMonoMarkLineMode
p2876
aVxyMonoMarker
p2877
aVxyMonoMarkerColor
p2878
aVxyMonoMarkerSize
p2879
aVxyMonoMarkerThickness
p2880
aVxyXIrrTensionF
p2881
aVxyXIrregularPoints
p2882
aVxyXStyle
p2883
aVxyYIrrTensionF
p2884
aVxyYIrregularPoints
p2885
aVxyYStyle
p2886
aasS'gsn'
p2887
(lp2888
S'ncl_key_gsn'
p2889
aS'Ncl gsn csm plot templates and special gsn functions.'
p2890
aS'http://www.ncl.ucar.edu//Document/Graphics/Interfaces/'
p2891
a(lp2892
Vgsn_define_colormap
p2893
aVgsn_draw_colormap
p2894
aVgsn_draw_named_colors
p2895
aVgsn_merge_colormaps
p2896
aVgsn_retrieve_colormap
p2897
aVgsn_reverse_colormap
p2898
aVgsn_contour
p2899
aVgsn_contour_map
p2900
aVgsn_csm_contour
p2901
aVgsn_csm_hov
p2902
aVgsn_csm_time_lat
p2903
aVgsn_csm_lat_time
p2904
aVgsn_csm_pres_hgt
p2905
aVgsn_csm_contour_map
p2906
aVgsn_csm_contour_map_ce
p2907
aVgsn_csm_contour_map_polar
p2908
aVgsn_csm_contour_map_overlay
p2909
aVgsn_contour_shade
p2910
aVgsn_map
p2911
aVgsn_csm_map
p2912
aVgsn_csm_map_ce
p2913
aVgsn_csm_map_polar
p2914
aVgsn_polygon
p2915
aVgsn_add_polygon
p2916
aVgsn_polygon_ndc
p2917
aVgsn_polyline
p2918
aVgsn_add_polyline
p2919
aVgsn_polyline_ndc
p2920
aVgsn_polymarker
p2921
aVgsn_add_polymarker
p2922
aVgsn_polymarker_ndc
p2923
aVgsn_text
p2924
aVgsn_add_text
p2925
aVgsn_text_ndc
p2926
aVgsn_create_text
p2927
aVgsn_coordinates
p2928
aVgsn_add_shapefile_polygons
p2929
aVgsn_add_shapefile_polylines
p2930
aVgsn_add_shapefile_polymarkers
p2931
aVgsn_add_annotation
p2932
aVgsn_attach_plots
p2933
aVgsn_blank_plot
p2934
aVgsn_csm_blank_plot
p2935
aVgsn_create_labelbar
p2936
aVgsn_create_legend
p2937
aVgsn_create_text
p2938
aVgsn_histogram
p2939
aVgsn_labelbar_ndc
p2940
aVgsn_legend_ndc
p2941
aVgsn_open_wks
p2942
aVgsn_panel
p2943
aVgsn_table
p2944
aVreset_device_coordinates
p2945
aVgsn_streamline
p2946
aVgsn_streamline_map
p2947
aVgsn_streamline_scalar
p2948
aVgsn_streamline_scalar_map
p2949
aVgsn_csm_streamline
p2950
aVgsn_csm_streamline_map
p2951
aVgsn_csm_streamline_map_ce
p2952
aVgsn_csm_streamline_map_polar
p2953
aVgsn_csm_streamline_contour_map
p2954
aVgsn_csm_streamline_contour_map_ce
p2955
aVgsn_csm_streamline_contour_map_polar
p2956
aVgsn_csm_streamline_scalar
p2957
aVgsn_csm_streamline_scalar_map
p2958
aVgsn_csm_streamline_scalar_map_ce
p2959
aVgsn_csm_streamline_scalar_map_polar
p2960
aVgsn_csm_pres_hgt_streamline
p2961
aVgsn_vector
p2962
aVgsn_vector_map
p2963
aVgsn_vector_scalar
p2964
aVgsn_vector_scalar_map
p2965
aVgsn_csm_vector
p2966
aVgsn_csm_vector_map
p2967
aVgsn_csm_vector_map_ce
p2968
aVgsn_csm_vector_map_polar
p2969
aVgsn_csm_vector_scalar
p2970
aVgsn_csm_vector_scalar_map
p2971
aVgsn_csm_vector_scalar_map_ce
p2972
aVgsn_csm_vector_scalar_map_polar
p2973
aVgsn_csm_pres_hgt_vector
p2974
aVgsn_xy
p2975
aVgsn_y
p2976
aVgsn_csm_xy
p2977
aVgsn_csm_y
p2978
aVgsn_csm_xy2
p2979
aVgsn_csm_x2y
p2980
aVgsn_csm_x2y2
p2981
aVgsn_csm_xy3
p2982
aas.